ccopy_reg
_reconstructor
p1
(cmatplotlib.font_manager
FontManager
p2
c__builtin__
object
p3
NtRp4
(dp5
S'ttflist'
p6
(lp7
g1
(cmatplotlib.font_manager
FontEntry
p8
g3
NtRp9
(dp10
S'style'
p11
Vnormal
p12
sS'name'
p13
S'STIXIntegralsUp'
p14
sS'weight'
p15
I400
sS'stretch'
p16
g12
sS'variant'
p17
g12
sS'fname'
p18
V/usr/share/fonts/opentype/stix/STIXIntegralsUp-Regular.otf
p19
sS'size'
p20
Vscalable
p21
sbag1
(g8
g3
NtRp22
(dp23
g11
g12
sg13
S'KacstTitle'
p24
sg15
I400
sg16
g12
sg17
g12
sg18
V/usr/share/fonts/truetype/kacst/KacstTitle.ttf
p25
sg20
g21
sbag1
(g8
g3
NtRp26
(dp27
g11
g12
sg13
S'Inconsolata'
p28
sg15
I400
sg16
g12
sg17
g12
sg18
V/usr/share/fonts/truetype/inconsolata/Inconsolata.otf
p29
sg20
g21
sbag1
(g8
g3
NtRp30
(dp31
g11
g12
sg13
S'Gillius ADF Cd'
p32
sg15
I400
sg16
g12
sg17
g12
sg18
V/usr/share/fonts/truetype/adf/GilliusADFCd-Regular.otf
p33
sg20
g21
sbag1
(g8
g3
NtRp34
(dp35
g11
g12
sg13
S'KacstScreen'
p36
sg15
I400
sg16
g12
sg17
g12
sg18
V/usr/share/fonts/truetype/kacst/KacstScreen.ttf
p37
sg20
g21
sbag1
(g8
g3
NtRp38
(dp39
g11
g12
sg13
S'Droid Sans Ethiopic'
p40
sg15
I700
sg16
g12
sg17
g12
sg18
V/usr/share/fonts/truetype/droid/DroidSansEthiopic-Bold.ttf
p41
sg20
g21
sbag1
(g8
g3
NtRp42
(dp43
g11
Voblique
p44
sg13
S'Norasi'
p45
sg15
I400
sg16
g12
sg17
g12
sg18
V/usr/share/fonts/truetype/tlwg/Norasi-Oblique.ttf
p46
sg20
g21
sbag1
(g8
g3
NtRp47
(dp48
g11
Vitalic
p49
sg13
S'Gentium Basic'
p50
sg15
I400
sg16
g12
sg17
g12
sg18
V/usr/share/fonts/truetype/gentium-basic/GenBasI.ttf
p51
sg20
g21
sbag1
(g8
g3
NtRp52
(dp53
g11
g12
sg13
S'Junicode'
p54
sg15
I400
sg16
g12
sg17
g12
sg18
V/usr/share/fonts/truetype/junicode/Junicode.ttf
p55
sg20
g21
sbag1
(g8
g3
NtRp56
(dp57
g11
g49
sg13
S'Gentium Book Basic'
p58
sg15
I700
sg16
g12
sg17
g12
sg18
V/usr/share/fonts/truetype/gentium-basic/GenBkBasBI.ttf
p59
sg20
g21
sbag1
(g8
g3
NtRp60
(dp61
g11
g12
sg13
S'TakaoPGothic'
p62
sg15
I400
sg16
g12
sg17
g12
sg18
V/usr/share/fonts/truetype/fonts-japanese-gothic.ttf
p63
sg20
g21
sbag1
(g8
g3
NtRp64
(dp65
g11
g12
sg13
S'Gentium Book Basic'
p66
sg15
I400
sg16
g12
sg17
g12
sg18
V/usr/share/fonts/truetype/gentium-basic/GenBkBasR.ttf
p67
sg20
g21
sbag1
(g8
g3
NtRp68
(dp69
g11
g12
sg13
S'DejaVu Serif'
p70
sg15
I400
sg16
g12
sg17
g12
sg18
V/usr/share/fonts/truetype/dejavu/DejaVuSerif.ttf
p71
sg20
g21
sbag1
(g8
g3
NtRp72
(dp73
g11
g12
sg13
S'Linux Libertine O'
p74
sg15
I700
sg16
g12
sg17
g12
sg18
V/usr/share/fonts/opentype/linux-libertine/LinLibertine_RZ.otf
p75
sg20
g21
sbag1
(g8
g3
NtRp76
(dp77
g11
g44
sg13
S'FreeMono'
p78
sg15
I700
sg16
g12
sg17
g12
sg18
V/usr/share/fonts/truetype/freefont/FreeMonoBoldOblique.ttf
p79
sg20
g21
sbag1
(g8
g3
NtRp80
(dp81
g11
g12
sg13
S'Accanthis ADF Std No2'
p82
sg15
I700
sg16
g12
sg17
g12
sg18
V/usr/share/fonts/truetype/adf/AccanthisADFStdNo2-Bold.otf
p83
sg20
g21
sbag1
(g8
g3
NtRp84
(dp85
g11
g49
sg13
S'GFS Didot'
p86
sg15
I700
sg16
g12
sg17
g12
sg18
V/usr/share/fonts/truetype/didot/GFSDidotBoldItalic.otf
p87
sg20
g21
sbag1
(g8
g3
NtRp88
(dp89
g11
g12
sg13
S'GFS Olga'
p90
sg15
I400
sg16
g12
sg17
g12
sg18
V/usr/share/fonts/truetype/olga/GFSOlga.otf
p91
sg20
g21
sbag1
(g8
g3
NtRp92
(dp93
g11
g12
sg13
S'DejaVu Serif'
p94
sg15
I700
sg16
Vcondensed
p95
sg17
g12
sg18
V/usr/share/fonts/truetype/dejavu/DejaVuSerifCondensed-Bold.ttf
p96
sg20
g21
sbag1
(g8
g3
NtRp97
(dp98
g11
g12
sg13
S'Gillius ADF No2 Cd'
p99
sg15
I700
sg16
g12
sg17
g12
sg18
V/usr/share/fonts/truetype/adf/GilliusADFNo2Cd-Bold.otf
p100
sg20
g21
sbag1
(g8
g3
NtRp101
(dp102
g11
g12
sg13
S'Tlwg Typist'
p103
sg15
I400
sg16
g12
sg17
g12
sg18
V/usr/share/fonts/truetype/tlwg/TlwgTypist.ttf
p104
sg20
g21
sbag1
(g8
g3
NtRp105
(dp106
g11
g12
sg13
S'NanumGothic'
p107
sg15
I400
sg16
g12
sg17
g12
sg18
V/usr/share/fonts/truetype/nanum/NanumGothic.ttf
p108
sg20
g21
sbag1
(g8
g3
NtRp109
(dp110
g11
g12
sg13
S'Lato'
p111
sg15
I700
sg16
g12
sg17
g12
sg18
V/usr/share/fonts/truetype/lato/Lato-Bol.ttf
p112
sg20
g21
sbag1
(g8
g3
NtRp113
(dp114
g11
g12
sg13
S'GFS Artemisia'
p115
sg15
I700
sg16
g12
sg17
g12
sg18
V/usr/share/fonts/truetype/artemisia/GFSArtemisiaBold.otf
p116
sg20
g21
sbag1
(g8
g3
NtRp117
(dp118
g11
g12
sg13
S'Gentium Basic'
p119
sg15
I400
sg16
g12
sg17
g12
sg18
V/usr/share/fonts/truetype/gentium-basic/GenBasR.ttf
p120
sg20
g21
sbag1
(g8
g3
NtRp121
(dp122
g11
g12
sg13
S'Droid Arabic Naskh'
p123
sg15
I400
sg16
g12
sg17
g12
sg18
V/usr/share/fonts/truetype/droid/DroidNaskh-Regular.ttf
p124
sg20
g21
sbag1
(g8
g3
NtRp125
(dp126
g11
g49
sg13
S'Gentium'
p127
sg15
I400
sg16
g12
sg17
g12
sg18
V/usr/share/fonts/truetype/gentium/GenI102.ttf
p128
sg20
g21
sbag1
(g8
g3
NtRp129
(dp130
g11
g12
sg13
S'Comfortaa'
p131
sg15
I200
sg16
g12
sg17
g12
sg18
V/usr/share/fonts/truetype/comfortaa/Comfortaa-Light.ttf
p132
sg20
g21
sbag1
(g8
g3
NtRp133
(dp134
g11
g12
sg13
S'Optima'
p135
sg15
I700
sg16
g12
sg17
g12
sg18
V/home/usman/.fonts/Library/O/OptimaBold.ttf
p136
sg20
g21
sbag1
(g8
g3
NtRp137
(dp138
g11
g49
sg13
S'CMU Serif Extra'
p139
sg15
I400
sg16
g12
sg17
g12
sg18
V/home/usman/.fonts/Library/C/cmunsl.ttf
p140
sg20
g21
sbag1
(g8
g3
NtRp141
(dp142
g11
g49
sg13
S'Liberation Sans'
p143
sg15
I400
sg16
g12
sg17
g12
sg18
V/usr/share/fonts/truetype/liberation/LiberationSans-Italic.ttf
p144
sg20
g21
sbag1
(g8
g3
NtRp145
(dp146
g11
g44
sg13
S'DejaVu Sans Mono'
p147
sg15
I400
sg16
g12
sg17
g12
sg18
V/usr/share/fonts/truetype/dejavu/DejaVuSansMono-Oblique.ttf
p148
sg20
g21
sbag1
(g8
g3
NtRp149
(dp150
g11
g12
sg13
S'STIXIntegralsUp'
p151
sg15
I700
sg16
g12
sg17
g12
sg18
V/usr/share/fonts/opentype/stix/STIXIntegralsUp-Bold.otf
p152
sg20
g21
sbag1
(g8
g3
NtRp153
(dp154
g11
g12
sg13
S'PowerlineSymbols'
p155
sg15
I400
sg16
g12
sg17
g12
sg18
V/home/usman/.fonts/Library/P/PowerlineSymbols.otf
p156
sg20
g21
sbag1
(g8
g3
NtRp157
(dp158
g11
g12
sg13
S'FontAwesome'
p159
sg15
I400
sg16
g12
sg17
g12
sg18
V/usr/share/fonts/truetype/font-awesome/fontawesome-webfont.ttf
p160
sg20
g21
sbag1
(g8
g3
NtRp161
(dp162
g11
g12
sg13
S'Droid Sans Hebrew'
p163
sg15
I700
sg16
g12
sg17
g12
sg18
V/usr/share/fonts/truetype/droid/DroidSansHebrew-Bold.ttf
p164
sg20
g21
sbag1
(g8
g3
NtRp165
(dp166
g11
g12
sg13
S'Cabin'
p167
sg15
I500
sg16
g12
sg17
g12
sg18
V/usr/share/fonts/opentype/cabin/Cabin-Medium.otf
p168
sg20
g21
sbag1
(g8
g3
NtRp169
(dp170
g11
g49
sg13
S'DejaVu Serif'
p171
sg15
I700
sg16
g12
sg17
g12
sg18
V/usr/share/fonts/truetype/dejavu/DejaVuSerif-BoldItalic.ttf
p172
sg20
g21
sbag1
(g8
g3
NtRp173
(dp174
g11
g12
sg13
S'Ubuntu Mono'
p175
sg15
I400
sg16
g12
sg17
g12
sg18
V/usr/share/fonts/truetype/ubuntu-font-family/UbuntuMono-R.ttf
p176
sg20
g21
sbag1
(g8
g3
NtRp177
(dp178
g11
g44
sg13
S'Loma'
p179
sg15
I400
sg16
g12
sg17
g12
sg18
V/usr/share/fonts/truetype/tlwg/Loma-Oblique.ttf
p180
sg20
g21
sbag1
(g8
g3
NtRp181
(dp182
g11
g49
sg13
S'Cabin'
p183
sg15
I400
sg16
g12
sg17
g12
sg18
V/usr/share/fonts/opentype/cabin/Cabin-Italic.otf
p184
sg20
g21
sbag1
(g8
g3
NtRp185
(dp186
g11
g12
sg13
S'Input'
p187
sg15
I700
sg16
g12
sg17
g12
sg18
V/home/usman/.fonts/Library/I/Input-Bold_(InputMonoNarrow-Bold).ttf
p188
sg20
g21
sbag1
(g8
g3
NtRp189
(dp190
g11
g12
sg13
S'FreeSerif'
p191
sg15
I700
sg16
g12
sg17
g12
sg18
V/usr/share/fonts/opentype/freefont/FreeSerifBold.otf
p192
sg20
g21
sbag1
(g8
g3
NtRp193
(dp194
g11
g12
sg13
S'FreeSans'
p195
sg15
I400
sg16
g12
sg17
g12
sg18
V/usr/share/fonts/opentype/freefont/FreeSans.otf
p196
sg20
g21
sbag1
(g8
g3
NtRp197
(dp198
g11
g12
sg13
S'KacstNaskh'
p199
sg15
I400
sg16
g12
sg17
g12
sg18
V/usr/share/fonts/truetype/kacst/KacstNaskh.ttf
p200
sg20
g21
sbag1
(g8
g3
NtRp201
(dp202
g11
g49
sg13
S'Kinnari'
p203
sg15
I700
sg16
g12
sg17
g12
sg18
V/usr/share/fonts/truetype/tlwg/Kinnari-BoldItalic.ttf
p204
sg20
g21
sbag1
(g8
g3
NtRp205
(dp206
g11
g12
sg13
S'Sawasdee'
p207
sg15
I400
sg16
g12
sg17
g12
sg18
V/usr/share/fonts/truetype/tlwg/Sawasdee.ttf
p208
sg20
g21
sbag1
(g8
g3
NtRp209
(dp210
g11
g12
sg13
S'STIXSizeThreeSym'
p211
sg15
I400
sg16
g12
sg17
g12
sg18
V/usr/share/fonts/opentype/stix/STIXSizeThreeSym-Regular.otf
p212
sg20
g21
sbag1
(g8
g3
NtRp213
(dp214
g11
g44
sg13
S'DejaVu Sans Mono'
p215
sg15
I700
sg16
g12
sg17
g12
sg18
V/usr/share/fonts/truetype/dejavu/DejaVuSansMono-BoldOblique.ttf
p216
sg20
g21
sbag1
(g8
g3
NtRp217
(dp218
g11
g12
sg13
S'FreeSans'
p219
sg15
I700
sg16
g12
sg17
g12
sg18
V/usr/share/fonts/truetype/freefont/FreeSansBold.ttf
p220
sg20
g21
sbag1
(g8
g3
NtRp221
(dp222
g11
g12
sg13
S'Purisa'
p223
sg15
I700
sg16
g12
sg17
g12
sg18
V/usr/share/fonts/truetype/tlwg/Purisa-Bold.ttf
p224
sg20
g21
sbag1
(g8
g3
NtRp225
(dp226
g11
g12
sg13
S'Tlwg Typist'
p227
sg15
I700
sg16
g12
sg17
g12
sg18
V/usr/share/fonts/truetype/tlwg/TlwgTypist-Bold.ttf
p228
sg20
g21
sbag1
(g8
g3
NtRp229
(dp230
g11
g12
sg13
S'KacstPoster'
p231
sg15
I400
sg16
g12
sg17
g12
sg18
V/usr/share/fonts/truetype/kacst/KacstPoster.ttf
p232
sg20
g21
sbag1
(g8
g3
NtRp233
(dp234
g11
g12
sg13
S'Purisa'
p235
sg15
I400
sg16
g12
sg17
g12
sg18
V/usr/share/fonts/truetype/tlwg/Purisa.ttf
p236
sg20
g21
sbag1
(g8
g3
NtRp237
(dp238
g11
g12
sg13
S'STIXSizeOneSym'
p239
sg15
I700
sg16
g12
sg17
g12
sg18
V/usr/share/fonts/opentype/stix/STIXSizeOneSym-Bold.otf
p240
sg20
g21
sbag1
(g8
g3
NtRp241
(dp242
g11
g49
sg13
S'Accanthis ADF Std No3'
p243
sg15
I400
sg16
g12
sg17
g12
sg18
V/usr/share/fonts/truetype/adf/AccanthisADFStdNo3-Italic.otf
p244
sg20
g21
sbag1
(g8
g3
NtRp245
(dp246
g11
g49
sg13
S'Ubuntu'
p247
sg15
I200
sg16
g12
sg17
g12
sg18
V/usr/share/fonts/truetype/ubuntu-font-family/Ubuntu-LI.ttf
p248
sg20
g21
sbag1
(g8
g3
NtRp249
(dp250
g11
g12
sg13
S'Droid Sans Mono'
p251
sg15
I400
sg16
g12
sg17
g12
sg18
V/usr/share/fonts/truetype/droid/DroidSansMono.ttf
p252
sg20
g21
sbag1
(g8
g3
NtRp253
(dp254
g11
g12
sg13
S'FreeSerif'
p255
sg15
I400
sg16
g12
sg17
g12
sg18
V/usr/share/fonts/opentype/freefont/FreeSerif.otf
p256
sg20
g21
sbag1
(g8
g3
NtRp257
(dp258
g11
g12
sg13
S'STIXIntegralsSm'
p259
sg15
I700
sg16
g12
sg17
g12
sg18
V/usr/share/fonts/opentype/stix/STIXIntegralsSm-Bold.otf
p260
sg20
g21
sbag1
(g8
g3
NtRp261
(dp262
g11
g44
sg13
S'Umpush'
p263
sg15
I400
sg16
g12
sg17
g12
sg18
V/usr/share/fonts/truetype/tlwg/Umpush-Oblique.ttf
p264
sg20
g21
sbag1
(g8
g3
NtRp265
(dp266
g11
g12
sg13
S'NanumGothic'
p267
sg15
I700
sg16
g12
sg17
g12
sg18
V/usr/share/fonts/truetype/nanum/NanumGothicBold.ttf
p268
sg20
g21
sbag1
(g8
g3
NtRp269
(dp270
g11
g49
sg13
S'Liberation Mono'
p271
sg15
I700
sg16
g12
sg17
g12
sg18
V/usr/share/fonts/truetype/liberation/LiberationMono-BoldItalic.ttf
p272
sg20
g21
sbag1
(g8
g3
NtRp273
(dp274
g11
g12
sg13
S'Monaco'
p275
sg15
I400
sg16
g12
sg17
g12
sg18
V/usr/share/fonts/truetype/custom/Monaco_Linux.ttf
p276
sg20
g21
sbag1
(g8
g3
NtRp277
(dp278
g11
g49
sg13
S'FreeSerif'
p279
sg15
I400
sg16
g12
sg17
g12
sg18
V/usr/share/fonts/opentype/freefont/FreeSerifItalic.otf
p280
sg20
g21
sbag1
(g8
g3
NtRp281
(dp282
g11
g12
sg13
S'DejaVu Sans'
p283
sg15
I400
sg16
g12
sg17
g12
sg18
V/usr/share/fonts/truetype/ttf-dejavu/DejaVuSans.ttf
p284
sg20
g21
sbag1
(g8
g3
NtRp285
(dp286
g11
g12
sg13
S'Ubuntu Condensed'
p287
sg15
I400
sg16
g95
sg17
g12
sg18
V/usr/share/fonts/truetype/ubuntu-font-family/Ubuntu-C.ttf
p288
sg20
g21
sbag1
(g8
g3
NtRp289
(dp290
g11
g12
sg13
S'OpenSymbol'
p291
sg15
I400
sg16
g12
sg17
g12
sg18
V/usr/share/fonts/truetype/openoffice/opens___.ttf
p292
sg20
g21
sbag1
(g8
g3
NtRp293
(dp294
g11
g12
sg13
S'Cabin'
p295
sg15
I700
sg16
g12
sg17
g12
sg18
V/usr/share/fonts/opentype/cabin/Cabin-Bold.otf
p296
sg20
g21
sbag1
(g8
g3
NtRp297
(dp298
g11
g49
sg13
S'Norasi'
p299
sg15
I400
sg16
g12
sg17
g12
sg18
V/usr/share/fonts/truetype/tlwg/Norasi-Italic.ttf
p300
sg20
g21
sbag1
(g8
g3
NtRp301
(dp302
g11
g12
sg13
S'Droid Sans Fallback'
p303
sg15
I400
sg16
g12
sg17
g12
sg18
V/usr/share/fonts/truetype/droid/DroidSansFallbackFull.ttf
p304
sg20
g21
sbag1
(g8
g3
NtRp305
(dp306
g11
g12
sg13
S'Khmer OS System'
p307
sg15
I400
sg16
g12
sg17
g12
sg18
V/usr/share/fonts/truetype/ttf-khmeros-core/KhmerOSsys.ttf
p308
sg20
g21
sbag1
(g8
g3
NtRp309
(dp310
g11
g44
sg13
S'Tlwg Typist'
p311
sg15
I400
sg16
g12
sg17
g12
sg18
V/usr/share/fonts/truetype/tlwg/TlwgTypist-Oblique.ttf
p312
sg20
g21
sbag1
(g8
g3
NtRp313
(dp314
g11
g12
sg13
S'FreeSans'
p315
sg15
I700
sg16
g12
sg17
g12
sg18
V/usr/share/fonts/opentype/freefont/FreeSansBold.otf
p316
sg20
g21
sbag1
(g8
g3
NtRp317
(dp318
g11
g49
sg13
S'Lobster Two'
p319
sg15
I400
sg16
g12
sg17
g12
sg18
V/usr/share/fonts/opentype/lobstertwo/LobsterTwo-Italic.otf
p320
sg20
g21
sbag1
(g8
g3
NtRp321
(dp322
g11
g12
sg13
S'Mukti Narrow'
p323
sg15
I700
sg16
g12
sg17
g12
sg18
V/usr/share/fonts/truetype/ttf-indic-fonts-core/MuktiNarrowBold.ttf
p324
sg20
g21
sbag1
(g8
g3
NtRp325
(dp326
g11
g12
sg13
S'Nafees'
p327
sg15
I400
sg16
g12
sg17
g12
sg18
V/usr/share/fonts/truetype/fonts-nafees/NafeesNastaleeq.ttf
p328
sg20
g21
sbag1
(g8
g3
NtRp329
(dp330
g11
g12
sg13
S'DejaVu Sans'
p331
sg15
I700
sg16
g12
sg17
g12
sg18
V/usr/share/fonts/truetype/dejavu/DejaVuSans-Bold.ttf
p332
sg20
g21
sbag1
(g8
g3
NtRp333
(dp334
g11
g49
sg13
S'Ubuntu'
p335
sg15
I400
sg16
g12
sg17
g12
sg18
V/usr/share/fonts/truetype/ubuntu-font-family/Ubuntu-RI.ttf
p336
sg20
g21
sbag1
(g8
g3
NtRp337
(dp338
g11
g12
sg13
S'NanumBarunGothic'
p339
sg15
I400
sg16
g12
sg17
g12
sg18
V/usr/share/fonts/truetype/nanum/NanumBarunGothic.ttf
p340
sg20
g21
sbag1
(g8
g3
NtRp341
(dp342
g11
g12
sg13
S'Liberation Serif'
p343
sg15
I400
sg16
g12
sg17
g12
sg18
V/usr/share/fonts/truetype/liberation/LiberationSerif-Regular.ttf
p344
sg20
g21
sbag1
(g8
g3
NtRp345
(dp346
g11
g49
sg13
S'Ubuntu Mono'
p347
sg15
I700
sg16
g12
sg17
g12
sg18
V/usr/share/fonts/truetype/ubuntu-font-family/UbuntuMono-BI.ttf
p348
sg20
g21
sbag1
(g8
g3
NtRp349
(dp350
g11
g12
sg13
S'Lohit Tamil'
p351
sg15
I400
sg16
g12
sg17
g12
sg18
V/usr/share/fonts/truetype/ttf-indic-fonts-core/lohit_ta.ttf
p352
sg20
g21
sbag1
(g8
g3
NtRp353
(dp354
g11
g49
sg13
S'Lobster Two'
p355
sg15
I700
sg16
g12
sg17
g12
sg18
V/usr/share/fonts/opentype/lobstertwo/LobsterTwo-BoldItalic.otf
p356
sg20
g21
sbag1
(g8
g3
NtRp357
(dp358
g11
g12
sg13
S'Kinnari'
p359
sg15
I400
sg16
g12
sg17
g12
sg18
V/usr/share/fonts/truetype/tlwg/Kinnari.ttf
p360
sg20
g21
sbag1
(g8
g3
NtRp361
(dp362
g11
g12
sg13
S'STIXGeneral'
p363
sg15
I400
sg16
g12
sg17
g12
sg18
V/usr/share/fonts/opentype/stix/STIXGeneral-Regular.otf
p364
sg20
g21
sbag1
(g8
g3
NtRp365
(dp366
g11
g12
sg13
S'Junicode'
p367
sg15
I700
sg16
g12
sg17
g12
sg18
V/usr/share/fonts/truetype/junicode/Junicode-Bold.ttf
p368
sg20
g21
sbag1
(g8
g3
NtRp369
(dp370
g11
g49
sg13
S'GFS Didot'
p371
sg15
I400
sg16
g12
sg17
g12
sg18
V/usr/share/fonts/truetype/didot/GFSDidotItalic.otf
p372
sg20
g21
sbag1
(g8
g3
NtRp373
(dp374
g11
g12
sg13
S'Gillius ADF No2 Cd'
p375
sg15
I400
sg16
g12
sg17
g12
sg18
V/usr/share/fonts/truetype/adf/GilliusADFNo2Cd-Regular.otf
p376
sg20
g21
sbag1
(g8
g3
NtRp377
(dp378
g11
g12
sg13
S'TlwgMono'
p379
sg15
I400
sg16
g12
sg17
g12
sg18
V/usr/share/fonts/truetype/tlwg/TlwgMono.ttf
p380
sg20
g21
sbag1
(g8
g3
NtRp381
(dp382
g11
g49
sg13
S'Lato'
p383
sg15
I400
sg16
g12
sg17
g12
sg18
V/usr/share/fonts/truetype/lato/Lato-HaiIta.ttf
p384
sg20
g21
sbag1
(g8
g3
NtRp385
(dp386
g11
g44
sg13
S'Purisa'
p387
sg15
I400
sg16
g12
sg17
g12
sg18
V/usr/share/fonts/truetype/tlwg/Purisa-Oblique.ttf
p388
sg20
g21
sbag1
(g8
g3
NtRp389
(dp390
g11
g49
sg13
S'Kinnari'
p391
sg15
I400
sg16
g12
sg17
g12
sg18
V/usr/share/fonts/truetype/tlwg/Kinnari-Italic.ttf
p392
sg20
g21
sbag1
(g8
g3
NtRp393
(dp394
g11
g12
sg13
S'STIXSizeOneSym'
p395
sg15
I400
sg16
g12
sg17
g12
sg18
V/usr/share/fonts/opentype/stix/STIXSizeOneSym-Regular.otf
p396
sg20
g21
sbag1
(g8
g3
NtRp397
(dp398
g11
g12
sg13
S'Saab'
p399
sg15
I400
sg16
g12
sg17
g12
sg18
V/usr/share/fonts/truetype/ttf-punjabi-fonts/Saab.ttf
p400
sg20
g21
sbag1
(g8
g3
NtRp401
(dp402
g11
g49
sg13
S'Ubuntu Mono'
p403
sg15
I400
sg16
g12
sg17
g12
sg18
V/usr/share/fonts/truetype/ubuntu-font-family/UbuntuMono-RI.ttf
p404
sg20
g21
sbag1
(g8
g3
NtRp405
(dp406
g11
g12
sg13
S'KacstLetter'
p407
sg15
I400
sg16
g12
sg17
g12
sg18
V/usr/share/fonts/truetype/kacst/KacstLetter.ttf
p408
sg20
g21
sbag1
(g8
g3
NtRp409
(dp410
g11
g12
sg13
S'DejaVu Sans'
p411
sg15
I700
sg16
g95
sg17
g12
sg18
V/usr/share/fonts/truetype/dejavu/DejaVuSansCondensed-Bold.ttf
p412
sg20
g21
sbag1
(g8
g3
NtRp413
(dp414
g11
g49
sg13
S'GFS Neohellenic'
p415
sg15
I700
sg16
g12
sg17
g12
sg18
V/usr/share/fonts/truetype/neohellenic/GFSNeohellenicBoldIt.otf
p416
sg20
g21
sbag1
(g8
g3
NtRp417
(dp418
g11
g49
sg13
S'Gillius ADF'
p419
sg15
I400
sg16
g12
sg17
g12
sg18
V/usr/share/fonts/truetype/adf/GilliusADF-Italic.otf
p420
sg20
g21
sbag1
(g8
g3
NtRp421
(dp422
g11
g44
sg13
S'TlwgTypewriter'
p423
sg15
I400
sg16
g12
sg17
g12
sg18
V/usr/share/fonts/truetype/tlwg/TlwgTypewriter-Oblique.ttf
p424
sg20
g21
sbag1
(g8
g3
NtRp425
(dp426
g11
g12
sg13
S'Ubuntu'
p427
sg15
I500
sg16
g12
sg17
g12
sg18
V/usr/share/fonts/truetype/ubuntu-font-family/Ubuntu-M.ttf
p428
sg20
g21
sbag1
(g8
g3
NtRp429
(dp430
g11
g12
sg13
S'Garuda'
p431
sg15
I700
sg16
g12
sg17
g12
sg18
V/usr/share/fonts/truetype/tlwg/Garuda-Bold.ttf
p432
sg20
g21
sbag1
(g8
g3
NtRp433
(dp434
g11
g44
sg13
S'Tlwg Typist'
p435
sg15
I700
sg16
g12
sg17
g12
sg18
V/usr/share/fonts/truetype/tlwg/TlwgTypist-BoldOblique.ttf
p436
sg20
g21
sbag1
(g8
g3
NtRp437
(dp438
g11
g44
sg13
S'FreeSans'
p439
sg15
I400
sg16
g12
sg17
g12
sg18
V/usr/share/fonts/opentype/freefont/FreeSansOblique.otf
p440
sg20
g21
sbag1
(g8
g3
NtRp441
(dp442
g11
g49
sg13
S'Roboto'
p443
sg15
I400
sg16
g12
sg17
g12
sg18
V/home/usman/.fonts/Library/R/Roboto-Italic.ttf
p444
sg20
g21
sbag1
(g8
g3
NtRp445
(dp446
g11
g49
sg13
S'Ubuntu'
p447
sg15
I700
sg16
g12
sg17
g12
sg18
V/usr/share/fonts/truetype/ubuntu-font-family/Ubuntu-BI.ttf
p448
sg20
g21
sbag1
(g8
g3
NtRp449
(dp450
g11
g12
sg13
S'Input'
p451
sg15
I400
sg16
g12
sg17
g12
sg18
V/home/usman/.fonts/Library/I/Input-Regular_(InputMonoNarrow-Regular).ttf
p452
sg20
g21
sbag1
(g8
g3
NtRp453
(dp454
g11
g49
sg13
S'Linux Libertine O'
p455
sg15
I700
sg16
g12
sg17
g12
sg18
V/usr/share/fonts/opentype/linux-libertine/LinLibertine_RZI.otf
p456
sg20
g21
sbag1
(g8
g3
NtRp457
(dp458
g11
g12
sg13
S'Liberation Sans Narrow'
p459
sg15
I700
sg16
g95
sg17
g12
sg18
V/usr/share/fonts/truetype/liberation/LiberationSansNarrow-Bold.ttf
p460
sg20
g21
sbag1
(g8
g3
NtRp461
(dp462
g11
g12
sg13
S'Droid Sans Armenian'
p463
sg15
I400
sg16
g12
sg17
g12
sg18
V/usr/share/fonts/truetype/droid/DroidSansArmenian.ttf
p464
sg20
g21
sbag1
(g8
g3
NtRp465
(dp466
g11
g12
sg13
S'Linux Libertine O'
p467
sg15
I400
sg16
g12
sg17
g12
sg18
V/usr/share/fonts/opentype/linux-libertine/LinLibertine_R.otf
p468
sg20
g21
sbag1
(g8
g3
NtRp469
(dp470
g11
g12
sg13
S'DejaVu Sans Mono'
p471
sg15
I700
sg16
g12
sg17
g12
sg18
V/usr/share/fonts/truetype/dejavu/DejaVuSansMono-Bold.ttf
p472
sg20
g21
sbag1
(g8
g3
NtRp473
(dp474
g11
g44
sg13
S'DejaVu Sans'
p475
sg15
I400
sg16
g95
sg17
g12
sg18
V/usr/share/fonts/truetype/dejavu/DejaVuSansCondensed-Oblique.ttf
p476
sg20
g21
sbag1
(g8
g3
NtRp477
(dp478
g11
g44
sg13
S'DejaVu Sans'
p479
sg15
I400
sg16
g12
sg17
g12
sg18
V/usr/share/fonts/truetype/dejavu/DejaVuSans-Oblique.ttf
p480
sg20
g21
sbag1
(g8
g3
NtRp481
(dp482
g11
g12
sg13
S'NanumBarunGothic'
p483
sg15
I700
sg16
g12
sg17
g12
sg18
V/usr/share/fonts/truetype/nanum/NanumBarunGothicBold.ttf
p484
sg20
g21
sbag1
(g8
g3
NtRp485
(dp486
g11
g49
sg13
S'Junicode'
p487
sg15
I700
sg16
g12
sg17
g12
sg18
V/usr/share/fonts/truetype/junicode/Junicode-BoldItalic.ttf
p488
sg20
g21
sbag1
(g8
g3
NtRp489
(dp490
g11
g12
sg13
S'TlwgMono'
p491
sg15
I700
sg16
g12
sg17
g12
sg18
V/usr/share/fonts/truetype/tlwg/TlwgMono-Bold.ttf
p492
sg20
g21
sbag1
(g8
g3
NtRp493
(dp494
g11
g49
sg13
S'Liberation Mono'
p495
sg15
I400
sg16
g12
sg17
g12
sg18
V/usr/share/fonts/truetype/liberation/LiberationMono-Italic.ttf
p496
sg20
g21
sbag1
(g8
g3
NtRp497
(dp498
g11
g49
sg13
S'Liberation Serif'
p499
sg15
I700
sg16
g12
sg17
g12
sg18
V/usr/share/fonts/truetype/liberation/LiberationSerif-BoldItalic.ttf
p500
sg20
g21
sbag1
(g8
g3
NtRp501
(dp502
g11
g12
sg13
S'Adobe Garamond Pro'
p503
sg15
I700
sg16
g12
sg17
g12
sg18
V/home/usman/.fonts/Library/A/AGaramondPro-Semibold.otf
p504
sg20
g21
sbag1
(g8
g3
NtRp505
(dp506
g11
g12
sg13
S'Liberation Serif'
p507
sg15
I700
sg16
g12
sg17
g12
sg18
V/usr/share/fonts/truetype/liberation/LiberationSerif-Bold.ttf
p508
sg20
g21
sbag1
(g8
g3
NtRp509
(dp510
g11
g49
sg13
S'STIXGeneral'
p511
sg15
I700
sg16
g12
sg17
g12
sg18
V/usr/share/fonts/opentype/stix/STIXGeneral-BoldItalic.otf
p512
sg20
g21
sbag1
(g8
g3
NtRp513
(dp514
g11
g12
sg13
S'Waree'
p515
sg15
I700
sg16
g12
sg17
g12
sg18
V/usr/share/fonts/truetype/tlwg/Waree-Bold.ttf
p516
sg20
g21
sbag1
(g8
g3
NtRp517
(dp518
g11
g12
sg13
S'Pothana2000'
p519
sg15
I400
sg16
g12
sg17
g12
sg18
V/usr/share/fonts/truetype/ttf-indic-fonts-core/Pothana2000.ttf
p520
sg20
g21
sbag1
(g8
g3
NtRp521
(dp522
g11
g12
sg13
S'Adobe Caslon Pro'
p523
sg15
I400
sg16
g12
sg17
g12
sg18
V/home/usman/.fonts/Library/A/Adobe.otf
p524
sg20
g21
sbag1
(g8
g3
NtRp525
(dp526
g11
g12
sg13
S'DejaVu Serif'
p527
sg15
I400
sg16
g95
sg17
g12
sg18
V/usr/share/fonts/truetype/dejavu/DejaVuSerifCondensed.ttf
p528
sg20
g21
sbag1
(g8
g3
NtRp529
(dp530
g11
g12
sg13
S'ori1Uni'
p531
sg15
I500
sg16
g12
sg17
g12
sg18
V/usr/share/fonts/truetype/ttf-indic-fonts-core/utkal.ttf
p532
sg20
g21
sbag1
(g8
g3
NtRp533
(dp534
g11
g12
sg13
S'Linux Biolinum O'
p535
sg15
I700
sg16
g12
sg17
g12
sg18
V/usr/share/fonts/opentype/linux-libertine/LinBiolinum_RB.otf
p536
sg20
g21
sbag1
(g8
g3
NtRp537
(dp538
g11
g12
sg13
S'Mukti Narrow'
p539
sg15
I400
sg16
g12
sg17
g12
sg18
V/usr/share/fonts/truetype/ttf-indic-fonts-core/MuktiNarrow.ttf
p540
sg20
g21
sbag1
(g8
g3
NtRp541
(dp542
g11
g44
sg13
S'FreeMono'
p543
sg15
I700
sg16
g12
sg17
g12
sg18
V/usr/share/fonts/opentype/freefont/FreeMonoBoldOblique.otf
p544
sg20
g21
sbag1
(g8
g3
NtRp545
(dp546
g11
g12
sg13
S'Norasi'
p547
sg15
I700
sg16
g12
sg17
g12
sg18
V/usr/share/fonts/truetype/tlwg/Norasi-Bold.ttf
p548
sg20
g21
sbag1
(g8
g3
NtRp549
(dp550
g11
g44
sg13
S'Kinnari'
p551
sg15
I700
sg16
g12
sg17
g12
sg18
V/usr/share/fonts/truetype/tlwg/Kinnari-BoldOblique.ttf
p552
sg20
g21
sbag1
(g8
g3
NtRp553
(dp554
g11
g12
sg13
S'Mallige'
p555
sg15
I400
sg16
g12
sg17
g12
sg18
V/usr/share/fonts/truetype/ttf-indic-fonts-core/Malige-n.ttf
p556
sg20
g21
sbag1
(g8
g3
NtRp557
(dp558
g11
g12
sg13
S'KacstOne'
p559
sg15
I400
sg16
g12
sg17
g12
sg18
V/usr/share/fonts/truetype/kacst-one/KacstOne.ttf
p560
sg20
g21
sbag1
(g8
g3
NtRp561
(dp562
g11
g12
sg13
S'Lato'
p563
sg15
I400
sg16
g12
sg17
g12
sg18
V/usr/share/fonts/truetype/lato/Lato-Hai.ttf
p564
sg20
g21
sbag1
(g8
g3
NtRp565
(dp566
g11
g12
sg13
S'Lohit Bengali'
p567
sg15
I400
sg16
g12
sg17
g12
sg18
V/usr/share/fonts/truetype/ttf-indic-fonts-core/lohit_bn.ttf
p568
sg20
g21
sbag1
(g8
g3
NtRp569
(dp570
g11
g12
sg13
S'Gillius ADF'
p571
sg15
I700
sg16
g12
sg17
g12
sg18
V/usr/share/fonts/truetype/adf/GilliusADF-Bold.otf
p572
sg20
g21
sbag1
(g8
g3
NtRp573
(dp574
g11
g49
sg13
S'Gillius ADF No2 Cd'
p575
sg15
I400
sg16
g12
sg17
g12
sg18
V/usr/share/fonts/truetype/adf/GilliusADFNo2Cd-Italic.otf
p576
sg20
g21
sbag1
(g8
g3
NtRp577
(dp578
g11
g12
sg13
S'FreeMono'
p579
sg15
I700
sg16
g12
sg17
g12
sg18
V/usr/share/fonts/truetype/freefont/FreeMonoBold.ttf
p580
sg20
g21
sbag1
(g8
g3
NtRp581
(dp582
g11
g12
sg13
S'Accanthis ADF Std'
p583
sg15
I400
sg16
g12
sg17
g12
sg18
V/usr/share/fonts/truetype/adf/AccanthisADFStd-Regular.otf
p584
sg20
g21
sbag1
(g8
g3
NtRp585
(dp586
g11
g49
sg13
S'Optima'
p587
sg15
I400
sg16
g12
sg17
g12
sg18
V/home/usman/.fonts/Library/O/Optima_Italic.ttf
p588
sg20
g21
sbag1
(g8
g3
NtRp589
(dp590
g11
g49
sg13
S'Lato'
p591
sg15
I700
sg16
g12
sg17
g12
sg18
V/usr/share/fonts/truetype/lato/Lato-BolIta.ttf
p592
sg20
g21
sbag1
(g8
g3
NtRp593
(dp594
g11
g12
sg13
S'KacstBook'
p595
sg15
I400
sg16
g12
sg17
g12
sg18
V/usr/share/fonts/truetype/kacst/KacstBook.ttf
p596
sg20
g21
sbag1
(g8
g3
NtRp597
(dp598
g11
g49
sg13
S'Droid Serif'
p599
sg15
I700
sg16
g12
sg17
g12
sg18
V/usr/share/fonts/truetype/droid/DroidSerif-BoldItalic.ttf
p600
sg20
g21
sbag1
(g8
g3
NtRp601
(dp602
g11
g49
sg13
S'Lato'
p603
sg15
I400
sg16
g12
sg17
g12
sg18
V/usr/share/fonts/truetype/lato/Lato-RegIta.ttf
p604
sg20
g21
sbag1
(g8
g3
NtRp605
(dp606
g11
g12
sg13
S'GFS Neohellenic'
p607
sg15
I700
sg16
g12
sg17
g12
sg18
V/usr/share/fonts/truetype/neohellenic/GFSNeohellenicBold.otf
p608
sg20
g21
sbag1
(g8
g3
NtRp609
(dp610
g11
g12
sg13
S'Comfortaa'
p611
sg15
I400
sg16
g12
sg17
g12
sg18
V/usr/share/fonts/truetype/comfortaa/Comfortaa-Regular.ttf
p612
sg20
g21
sbag1
(g8
g3
NtRp613
(dp614
g11
g12
sg13
S'DejaVu Sans'
p615
sg15
I400
sg16
g95
sg17
g12
sg18
V/usr/share/fonts/truetype/dejavu/DejaVuSansCondensed.ttf
p616
sg20
g21
sbag1
(g8
g3
NtRp617
(dp618
g11
g49
sg13
S'STIXNonUnicode'
p619
sg15
I400
sg16
g12
sg17
g12
sg18
V/usr/share/fonts/opentype/stix/STIXNonUnicode-Italic.otf
p620
sg20
g21
sbag1
(g8
g3
NtRp621
(dp622
g11
g12
sg13
S'Comfortaa'
p623
sg15
I700
sg16
g12
sg17
g12
sg18
V/usr/share/fonts/truetype/comfortaa/Comfortaa-Bold.ttf
p624
sg20
g21
sbag1
(g8
g3
NtRp625
(dp626
g11
g12
sg13
S'Monaco for Powerline'
p627
sg15
I400
sg16
g12
sg17
g12
sg18
V/home/usman/.fonts/Monaco_Linux-Powerline.ttf
p628
sg20
g21
sbag1
(g8
g3
NtRp629
(dp630
g11
g44
sg13
S'DejaVu Sans'
p631
sg15
I700
sg16
g95
sg17
g12
sg18
V/usr/share/fonts/truetype/dejavu/DejaVuSansCondensed-BoldOblique.ttf
p632
sg20
g21
sbag1
(g8
g3
NtRp633
(dp634
g11
g49
sg13
S'GentiumAlt'
p635
sg15
I400
sg16
g12
sg17
g12
sg18
V/usr/share/fonts/truetype/gentium/GenAI102.ttf
p636
sg20
g21
sbag1
(g8
g3
NtRp637
(dp638
g11
g12
sg13
S'KacstDecorative'
p639
sg15
I400
sg16
g12
sg17
g12
sg18
V/usr/share/fonts/truetype/kacst/KacstDecorative.ttf
p640
sg20
g21
sbag1
(g8
g3
NtRp641
(dp642
g11
g12
sg13
S'Consolas'
p643
sg15
I400
sg16
g12
sg17
g12
sg18
V/home/usman/.fonts/Library/C/consola.ttf
p644
sg20
g21
sbag1
(g8
g3
NtRp645
(dp646
g11
g12
sg13
S'Ubuntu'
p647
sg15
I700
sg16
g12
sg17
g12
sg18
V/usr/share/fonts/truetype/ubuntu-font-family/Ubuntu-B.ttf
p648
sg20
g21
sbag1
(g8
g3
NtRp649
(dp650
g11
g44
sg13
S'FreeSans'
p651
sg15
I700
sg16
g12
sg17
g12
sg18
V/usr/share/fonts/truetype/freefont/FreeSansBoldOblique.ttf
p652
sg20
g21
sbag1
(g8
g3
NtRp653
(dp654
g11
g12
sg13
S'Nafees'
p655
sg15
I400
sg16
g12
sg17
g12
sg18
V/usr/share/fonts/truetype/fonts-nafees/NafeesWeb.ttf
p656
sg20
g21
sbag1
(g8
g3
NtRp657
(dp658
g11
g12
sg13
S'STIXNonUnicode'
p659
sg15
I400
sg16
g12
sg17
g12
sg18
V/usr/share/fonts/opentype/stix/STIXNonUnicode-Regular.otf
p660
sg20
g21
sbag1
(g8
g3
NtRp661
(dp662
g11
g44
sg13
S'Garuda'
p663
sg15
I700
sg16
g12
sg17
g12
sg18
V/usr/share/fonts/truetype/tlwg/Garuda-BoldOblique.ttf
p664
sg20
g21
sbag1
(g8
g3
NtRp665
(dp666
g11
g12
sg13
S'Padauk Book'
p667
sg15
I700
sg16
g12
sg17
g12
sg18
V/usr/share/fonts/truetype/padauk/Padauk-bookbold.ttf
p668
sg20
g21
sbag1
(g8
g3
NtRp669
(dp670
g11
g12
sg13
S'Cabin'
p671
sg15
I400
sg16
g12
sg17
g12
sg18
V/usr/share/fonts/opentype/cabin/Cabin-Regular.otf
p672
sg20
g21
sbag1
(g8
g3
NtRp673
(dp674
g11
g12
sg13
S'Adobe Garamond Pro'
p675
sg15
I400
sg16
g12
sg17
g12
sg18
V/home/usman/.fonts/Library/A/AGaramondPro-Regular.otf
p676
sg20
g21
sbag1
(g8
g3
NtRp677
(dp678
g11
g12
sg13
S'FreeSans'
p679
sg15
I400
sg16
g12
sg17
g12
sg18
V/usr/share/fonts/truetype/freefont/FreeSans.ttf
p680
sg20
g21
sbag1
(g8
g3
NtRp681
(dp682
g11
g44
sg13
S'Kinnari'
p683
sg15
I400
sg16
g12
sg17
g12
sg18
V/usr/share/fonts/truetype/tlwg/Kinnari-Oblique.ttf
p684
sg20
g21
sbag1
(g8
g3
NtRp685
(dp686
g11
g12
sg13
S'Umpush'
p687
sg15
I200
sg16
g12
sg17
g12
sg18
V/usr/share/fonts/truetype/tlwg/Umpush-Light.ttf
p688
sg20
g21
sbag1
(g8
g3
NtRp689
(dp690
g11
g49
sg13
S'Accanthis ADF Std No2'
p691
sg15
I700
sg16
g12
sg17
g12
sg18
V/usr/share/fonts/truetype/adf/AccanthisADFStdNo2-BoldItalic.otf
p692
sg20
g21
sbag1
(g8
g3
NtRp693
(dp694
g11
g12
sg13
S'Droid Sans Ethiopic'
p695
sg15
I400
sg16
g12
sg17
g12
sg18
V/usr/share/fonts/truetype/droid/DroidSansEthiopic-Regular.ttf
p696
sg20
g21
sbag1
(g8
g3
NtRp697
(dp698
g11
g44
sg13
S'Purisa'
p699
sg15
I700
sg16
g12
sg17
g12
sg18
V/usr/share/fonts/truetype/tlwg/Purisa-BoldOblique.ttf
p700
sg20
g21
sbag1
(g8
g3
NtRp701
(dp702
g11
g49
sg13
S'GFS Didot'
p703
sg15
I700
sg16
g12
sg17
g12
sg18
V/usr/share/fonts/truetype/artemisia/GFSArtemisiaBoldIt.otf
p704
sg20
g21
sbag1
(g8
g3
NtRp705
(dp706
g11
g49
sg13
S'Gentium Basic'
p707
sg15
I700
sg16
g12
sg17
g12
sg18
V/usr/share/fonts/truetype/gentium-basic/GenBasBI.ttf
p708
sg20
g21
sbag1
(g8
g3
NtRp709
(dp710
g11
g12
sg13
S'Linux Biolinum Keyboard O'
p711
sg15
I400
sg16
g12
sg17
g12
sg18
V/usr/share/fonts/opentype/linux-libertine/LinBiolinum_K.otf
p712
sg20
g21
sbag1
(g8
g3
NtRp713
(dp714
g11
g12
sg13
S'Phetsarath OT'
p715
sg15
I400
sg16
g12
sg17
g12
sg18
V/usr/share/fonts/truetype/lao/Phetsarath_OT.ttf
p716
sg20
g21
sbag1
(g8
g3
NtRp717
(dp718
g11
g44
sg13
S'FreeMono'
p719
sg15
I400
sg16
g12
sg17
g12
sg18
V/usr/share/fonts/truetype/freefont/FreeMonoOblique.ttf
p720
sg20
g21
sbag1
(g8
g3
NtRp721
(dp722
g11
g49
sg13
S'STIXNonUnicode'
p723
sg15
I700
sg16
g12
sg17
g12
sg18
V/usr/share/fonts/opentype/stix/STIXNonUnicode-BoldItalic.otf
p724
sg20
g21
sbag1
(g8
g3
NtRp725
(dp726
g11
g12
sg13
S'Gillius ADF'
p727
sg15
I400
sg16
g12
sg17
g12
sg18
V/usr/share/fonts/truetype/adf/GilliusADF-Regular.otf
p728
sg20
g21
sbag1
(g8
g3
NtRp729
(dp730
g11
g12
sg13
S'Liberation Sans Narrow'
p731
sg15
I400
sg16
g95
sg17
g12
sg18
V/usr/share/fonts/truetype/liberation/LiberationSansNarrow-Regular.ttf
p732
sg20
g21
sbag1
(g8
g3
NtRp733
(dp734
g11
g12
sg13
S'STIXVariants'
p735
sg15
I700
sg16
g12
sg17
g12
sg18
V/usr/share/fonts/opentype/stix/STIXVariants-Bold.otf
p736
sg20
g21
sbag1
(g8
g3
NtRp737
(dp738
g11
g49
sg13
S'Adobe Garamond Pro'
p739
sg15
I400
sg16
g12
sg17
g12
sg18
V/home/usman/.fonts/Library/A/Adobe Garamond Pro Italic.ttf
p740
sg20
g21
sbag1
(g8
g3
NtRp741
(dp742
g11
g12
sg13
S'STIXIntegralsD'
p743
sg15
I400
sg16
g12
sg17
g12
sg18
V/usr/share/fonts/opentype/stix/STIXIntegralsD-Regular.otf
p744
sg20
g21
sbag1
(g8
g3
NtRp745
(dp746
g11
g44
sg13
S'Sawasdee'
p747
sg15
I400
sg16
g12
sg17
g12
sg18
V/usr/share/fonts/truetype/tlwg/Sawasdee-Oblique.ttf
p748
sg20
g21
sbag1
(g8
g3
NtRp749
(dp750
g11
g12
sg13
S'STIXIntegralsD'
p751
sg15
I700
sg16
g12
sg17
g12
sg18
V/usr/share/fonts/opentype/stix/STIXIntegralsD-Bold.otf
p752
sg20
g21
sbag1
(g8
g3
NtRp753
(dp754
g11
g12
sg13
S'Khmer OS'
p755
sg15
I400
sg16
g12
sg17
g12
sg18
V/usr/share/fonts/truetype/ttf-khmeros-core/KhmerOS.ttf
p756
sg20
g21
sbag1
(g8
g3
NtRp757
(dp758
g11
g12
sg13
S'Padauk'
p759
sg15
I400
sg16
g12
sg17
g12
sg18
V/usr/share/fonts/truetype/padauk/Padauk.ttf
p760
sg20
g21
sbag1
(g8
g3
NtRp761
(dp762
g11
g12
sg13
S'Gillius ADF No2'
p763
sg15
I700
sg16
g12
sg17
g12
sg18
V/usr/share/fonts/truetype/adf/GilliusADFNo2-Bold.otf
p764
sg20
g21
sbag1
(g8
g3
NtRp765
(dp766
g11
g49
sg13
S'Gillius ADF Cd'
p767
sg15
I400
sg16
g12
sg17
g12
sg18
V/usr/share/fonts/truetype/adf/GilliusADFCd-Italic.otf
p768
sg20
g21
sbag1
(g8
g3
NtRp769
(dp770
g11
g12
sg13
S'Waree'
p771
sg15
I400
sg16
g12
sg17
g12
sg18
V/usr/share/fonts/truetype/tlwg/Waree.ttf
p772
sg20
g21
sbag1
(g8
g3
NtRp773
(dp774
g11
g12
sg13
S'FreeMono'
p775
sg15
I400
sg16
g12
sg17
g12
sg18
V/usr/share/fonts/truetype/freefont/FreeMono.ttf
p776
sg20
g21
sbag1
(g8
g3
NtRp777
(dp778
g11
g12
sg13
S'Lato'
p779
sg15
I400
sg16
g12
sg17
g12
sg18
V/usr/share/fonts/truetype/lato/Lato-Reg.ttf
p780
sg20
g21
sbag1
(g8
g3
NtRp781
(dp782
g11
g49
sg13
S'Gillius ADF No2 Cd'
p783
sg15
I700
sg16
g12
sg17
g12
sg18
V/usr/share/fonts/truetype/adf/GilliusADFNo2Cd-BoldItalic.otf
p784
sg20
g21
sbag1
(g8
g3
NtRp785
(dp786
g11
g12
sg13
S'STIXIntegralsUpSm'
p787
sg15
I700
sg16
g12
sg17
g12
sg18
V/usr/share/fonts/opentype/stix/STIXIntegralsUpSm-Bold.otf
p788
sg20
g21
sbag1
(g8
g3
NtRp789
(dp790
g11
g12
sg13
S'Linux Libertine Initials O'
p791
sg15
I400
sg16
g12
sg17
g12
sg18
V/usr/share/fonts/opentype/linux-libertine/LinLibertine_I.otf
p792
sg20
g21
sbag1
(g8
g3
NtRp793
(dp794
g11
g49
sg13
S'Droid Serif'
p795
sg15
I400
sg16
g12
sg17
g12
sg18
V/usr/share/fonts/truetype/droid/DroidSerif-Italic.ttf
p796
sg20
g21
sbag1
(g8
g3
NtRp797
(dp798
g11
g12
sg13
S'Umpush'
p799
sg15
I400
sg16
g12
sg17
g12
sg18
V/usr/share/fonts/truetype/tlwg/Umpush.ttf
p800
sg20
g21
sbag1
(g8
g3
NtRp801
(dp802
g11
g49
sg13
S'Gillius ADF No2'
p803
sg15
I400
sg16
g12
sg17
g12
sg18
V/usr/share/fonts/truetype/adf/GilliusADFNo2-Italic.otf
p804
sg20
g21
sbag1
(g8
g3
NtRp805
(dp806
g11
g12
sg13
S'Accanthis ADF Std No3'
p807
sg15
I400
sg16
g12
sg17
g12
sg18
V/usr/share/fonts/truetype/adf/AccanthisADFStdNo3-Regular.otf
p808
sg20
g21
sbag1
(g8
g3
NtRp809
(dp810
g11
g12
sg13
S'DejaVu Sans Mono'
p811
sg15
I400
sg16
g12
sg17
g12
sg18
V/usr/share/fonts/truetype/ttf-dejavu/DejaVuSansMono.ttf
p812
sg20
g21
sbag1
(g8
g3
NtRp813
(dp814
g11
g12
sg13
S'Lohit Punjabi'
p815
sg15
I400
sg16
g12
sg17
g12
sg18
V/usr/share/fonts/truetype/ttf-punjabi-fonts/lohit_pa.ttf
p816
sg20
g21
sbag1
(g8
g3
NtRp817
(dp818
g11
g49
sg13
S'MonacoB'
p819
sg15
I400
sg16
g12
sg17
g12
sg18
V/home/usman/.fonts/Library/M/MonacoB-Bold-Italic.otf
p820
sg20
g21
sbag1
(g8
g3
NtRp821
(dp822
g11
g49
sg13
S'Accanthis ADF Std'
p823
sg15
I400
sg16
g12
sg17
g12
sg18
V/usr/share/fonts/truetype/adf/AccanthisADFStd-Italic.otf
p824
sg20
g21
sbag1
(g8
g3
NtRp825
(dp826
g11
g12
sg13
S'Liberation Mono'
p827
sg15
I700
sg16
g12
sg17
g12
sg18
V/usr/share/fonts/truetype/liberation/LiberationMono-Bold.ttf
p828
sg20
g21
sbag1
(g8
g3
NtRp829
(dp830
g11
g12
sg13
S'Monoid'
p831
sg15
I700
sg16
g12
sg17
g12
sg18
V/home/usman/.local/share/fonts/Monoid-Bold.ttf
p832
sg20
g21
sbag1
(g8
g3
NtRp833
(dp834
g11
g12
sg13
S'FreeSerif'
p835
sg15
I700
sg16
g12
sg17
g12
sg18
V/usr/share/fonts/truetype/freefont/FreeSerifBold.ttf
p836
sg20
g21
sbag1
(g8
g3
NtRp837
(dp838
g11
g12
sg13
S'Droid Arabic Naskh'
p839
sg15
I700
sg16
g12
sg17
g12
sg18
V/usr/share/fonts/truetype/droid/DroidNaskh-Bold.ttf
p840
sg20
g21
sbag1
(g8
g3
NtRp841
(dp842
g11
g12
sg13
S'GFS Solomos'
p843
sg15
I400
sg16
g12
sg17
g12
sg18
V/usr/share/fonts/truetype/solomos/GFSSolomos.otf
p844
sg20
g21
sbag1
(g8
g3
NtRp845
(dp846
g11
g12
sg13
S'LKLUG'
p847
sg15
I400
sg16
g12
sg17
g12
sg18
V/usr/share/fonts/truetype/sinhala/lklug.ttf
p848
sg20
g21
sbag1
(g8
g3
NtRp849
(dp850
g11
g12
sg13
S'Lohit Devanagari'
p851
sg15
I400
sg16
g12
sg17
g12
sg18
V/usr/share/fonts/truetype/ttf-indic-fonts-core/lohit_hi.ttf
p852
sg20
g21
sbag1
(g8
g3
NtRp853
(dp854
g11
g49
sg13
S'Lato'
p855
sg15
I200
sg16
g12
sg17
g12
sg18
V/usr/share/fonts/truetype/lato/Lato-LigIta.ttf
p856
sg20
g21
sbag1
(g8
g3
NtRp857
(dp858
g11
g12
sg13
S'FontAwesome'
p859
sg15
I400
sg16
g12
sg17
g12
sg18
V/usr/share/fonts/opentype/font-awesome/FontAwesome.otf
p860
sg20
g21
sbag1
(g8
g3
NtRp861
(dp862
g11
g12
sg13
S'Ubuntu'
p863
sg15
I400
sg16
g12
sg17
g12
sg18
V/usr/share/fonts/truetype/ubuntu-font-family/Ubuntu-R.ttf
p864
sg20
g21
sbag1
(g8
g3
NtRp865
(dp866
g11
g44
sg13
S'DejaVu Sans'
p867
sg15
I700
sg16
g12
sg17
g12
sg18
V/usr/share/fonts/truetype/dejavu/DejaVuSans-BoldOblique.ttf
p868
sg20
g21
sbag1
(g8
g3
NtRp869
(dp870
g11
g44
sg13
S'TlwgMono'
p871
sg15
I400
sg16
g12
sg17
g12
sg18
V/usr/share/fonts/truetype/tlwg/TlwgMono-Oblique.ttf
p872
sg20
g21
sbag1
(g8
g3
NtRp873
(dp874
g11
g12
sg13
S'Roboto'
p875
sg15
I700
sg16
g12
sg17
g12
sg18
V/home/usman/.local/share/fonts/Roboto-Bold.ttf
p876
sg20
g21
sbag1
(g8
g3
NtRp877
(dp878
g11
g12
sg13
S'Droid Serif'
p879
sg15
I400
sg16
g12
sg17
g12
sg18
V/usr/share/fonts/truetype/droid/DroidSerif-Regular.ttf
p880
sg20
g21
sbag1
(g8
g3
NtRp881
(dp882
g11
g49
sg13
S'DejaVu Serif'
p883
sg15
I400
sg16
g12
sg17
g12
sg18
V/usr/share/fonts/truetype/dejavu/DejaVuSerif-Italic.ttf
p884
sg20
g21
sbag1
(g8
g3
NtRp885
(dp886
g11
g12
sg13
S'Gillius ADF Cd'
p887
sg15
I700
sg16
g12
sg17
g12
sg18
V/usr/share/fonts/truetype/adf/GilliusADFCd-Bold.otf
p888
sg20
g21
sbag1
(g8
g3
NtRp889
(dp890
g11
g12
sg13
S'NanumMyeongjo'
p891
sg15
I700
sg16
g12
sg17
g12
sg18
V/usr/share/fonts/truetype/nanum/NanumMyeongjoBold.ttf
p892
sg20
g21
sbag1
(g8
g3
NtRp893
(dp894
g11
g44
sg13
S'TlwgMono'
p895
sg15
I700
sg16
g12
sg17
g12
sg18
V/usr/share/fonts/truetype/tlwg/TlwgMono-BoldOblique.ttf
p896
sg20
g21
sbag1
(g8
g3
NtRp897
(dp898
g11
g12
sg13
S'STIXSizeTwoSym'
p899
sg15
I400
sg16
g12
sg17
g12
sg18
V/usr/share/fonts/opentype/stix/STIXSizeTwoSym-Regular.otf
p900
sg20
g21
sbag1
(g8
g3
NtRp901
(dp902
g11
g12
sg13
S'TakaoPGothic'
p903
sg15
I400
sg16
g12
sg17
g12
sg18
V/usr/share/fonts/truetype/takao-gothic/TakaoPGothic.ttf
p904
sg20
g21
sbag1
(g8
g3
NtRp905
(dp906
g11
g12
sg13
S'Droid Sans'
p907
sg15
I400
sg16
g12
sg17
g12
sg18
V/usr/share/fonts/truetype/droid/DroidSans.ttf
p908
sg20
g21
sbag1
(g8
g3
NtRp909
(dp910
g11
g49
sg13
S'GFS Neohellenic'
p911
sg15
I400
sg16
g12
sg17
g12
sg18
V/usr/share/fonts/truetype/neohellenic/GFSNeohellenicIt.otf
p912
sg20
g21
sbag1
(g8
g3
NtRp913
(dp914
g11
g12
sg13
S'STIXSizeFiveSym'
p915
sg15
I400
sg16
g12
sg17
g12
sg18
V/usr/share/fonts/opentype/stix/STIXSizeFiveSym-Regular.otf
p916
sg20
g21
sbag1
(g8
g3
NtRp917
(dp918
g11
g12
sg13
S'Kedage'
p919
sg15
I700
sg16
g12
sg17
g12
sg18
V/usr/share/fonts/truetype/ttf-indic-fonts-core/Kedage-b.ttf
p920
sg20
g21
sbag1
(g8
g3
NtRp921
(dp922
g11
g12
sg13
S'DejaVu Serif'
p923
sg15
I700
sg16
g12
sg17
g12
sg18
V/usr/share/fonts/truetype/ttf-dejavu/DejaVuSerif-Bold.ttf
p924
sg20
g21
sbag1
(g8
g3
NtRp925
(dp926
g11
g12
sg13
S'MonacoB2'
p927
sg15
I700
sg16
g12
sg17
g12
sg18
V/home/usman/.fonts/Library/M/MonacoB2-Bold.otf
p928
sg20
g21
sbag1
(g8
g3
NtRp929
(dp930
g11
g49
sg13
S'Norasi'
p931
sg15
I700
sg16
g12
sg17
g12
sg18
V/usr/share/fonts/truetype/tlwg/Norasi-BoldItalic.ttf
p932
sg20
g21
sbag1
(g8
g3
NtRp933
(dp934
g11
g12
sg13
S'Menlo'
p935
sg15
I400
sg16
g12
sg17
g12
sg18
V/home/usman/.fonts/Menlo-Regular.ttf
p936
sg20
g21
sbag1
(g8
g3
NtRp937
(dp938
g11
g12
sg13
S'Umpush'
p939
sg15
I700
sg16
g12
sg17
g12
sg18
V/usr/share/fonts/truetype/tlwg/Umpush-Bold.ttf
p940
sg20
g21
sbag1
(g8
g3
NtRp941
(dp942
g11
g49
sg13
S'Liberation Sans'
p943
sg15
I700
sg16
g12
sg17
g12
sg18
V/usr/share/fonts/truetype/liberation/LiberationSans-BoldItalic.ttf
p944
sg20
g21
sbag1
(g8
g3
NtRp945
(dp946
g11
g12
sg13
S'Lato'
p947
sg15
I900
sg16
g12
sg17
g12
sg18
V/usr/share/fonts/truetype/lato/Lato-Bla.ttf
p948
sg20
g21
sbag1
(g8
g3
NtRp949
(dp950
g11
g44
sg13
S'Norasi'
p951
sg15
I700
sg16
g12
sg17
g12
sg18
V/usr/share/fonts/truetype/tlwg/Norasi-BoldOblique.ttf
p952
sg20
g21
sbag1
(g8
g3
NtRp953
(dp954
g11
g12
sg13
S'Lobster Two'
p955
sg15
I700
sg16
g12
sg17
g12
sg18
V/usr/share/fonts/opentype/lobstertwo/LobsterTwo-Bold.otf
p956
sg20
g21
sbag1
(g8
g3
NtRp957
(dp958
g11
g12
sg13
S'Ubuntu'
p959
sg15
I200
sg16
g12
sg17
g12
sg18
V/usr/share/fonts/truetype/ubuntu-font-family/Ubuntu-L.ttf
p960
sg20
g21
sbag1
(g8
g3
NtRp961
(dp962
g11
g12
sg13
S'Linux Libertine O'
p963
sg15
I700
sg16
g12
sg17
g12
sg18
V/usr/share/fonts/opentype/linux-libertine/LinLibertine_RB.otf
p964
sg20
g21
sbag1
(g8
g3
NtRp965
(dp966
g11
g12
sg13
S'DejaVu Sans'
p967
sg15
I200
sg16
g12
sg17
g12
sg18
V/usr/share/fonts/truetype/dejavu/DejaVuSans-ExtraLight.ttf
p968
sg20
g21
sbag1
(g8
g3
NtRp969
(dp970
g11
g12
sg13
S'KacstFarsi'
p971
sg15
I400
sg16
g12
sg17
g12
sg18
V/usr/share/fonts/truetype/kacst/KacstFarsi.ttf
p972
sg20
g21
sbag1
(g8
g3
NtRp973
(dp974
g11
g12
sg13
S'MonacoBSemi'
p975
sg15
I700
sg16
g12
sg17
g12
sg18
V/home/usman/.fonts/Library/M/Monaco-Bold.otf
p976
sg20
g21
sbag1
(g8
g3
NtRp977
(dp978
g11
g44
sg13
S'Loma'
p979
sg15
I700
sg16
g12
sg17
g12
sg18
V/usr/share/fonts/truetype/tlwg/Loma-BoldOblique.ttf
p980
sg20
g21
sbag1
(g8
g3
NtRp981
(dp982
g11
g12
sg13
S'TlwgTypewriter'
p983
sg15
I400
sg16
g12
sg17
g12
sg18
V/usr/share/fonts/truetype/tlwg/TlwgTypewriter.ttf
p984
sg20
g21
sbag1
(g8
g3
NtRp985
(dp986
g11
g12
sg13
S'Accanthis ADF Std No2'
p987
sg15
I400
sg16
g12
sg17
g12
sg18
V/usr/share/fonts/truetype/adf/AccanthisADFStdNo2-Regular.otf
p988
sg20
g21
sbag1
(g8
g3
NtRp989
(dp990
g11
g12
sg13
S'gargi'
p991
sg15
I400
sg16
g12
sg17
g12
sg18
V/usr/share/fonts/truetype/ttf-indic-fonts-core/gargi.ttf
p992
sg20
g21
sbag1
(g8
g3
NtRp993
(dp994
g11
g12
sg13
S'Cabin'
p995
sg15
I700
sg16
g12
sg17
g12
sg18
V/usr/share/fonts/opentype/cabin/Cabin-SemiBold.otf
p996
sg20
g21
sbag1
(g8
g3
NtRp997
(dp998
g11
g49
sg13
S'GFS Artemisia'
p999
sg15
I400
sg16
g12
sg17
g12
sg18
V/usr/share/fonts/truetype/artemisia/GFSArtemisiaIt.otf
p1000
sg20
g21
sbag1
(g8
g3
NtRp1001
(dp1002
g11
g12
sg13
S'GFS Didot'
p1003
sg15
I700
sg16
g12
sg17
g12
sg18
V/usr/share/fonts/truetype/didot/GFSDidotBold.otf
p1004
sg20
g21
sbag1
(g8
g3
NtRp1005
(dp1006
g11
g49
sg13
S'Lato'
p1007
sg15
I900
sg16
g12
sg17
g12
sg18
V/usr/share/fonts/truetype/lato/Lato-BlaIta.ttf
p1008
sg20
g21
sbag1
(g8
g3
NtRp1009
(dp1010
g11
g12
sg13
S'Asana Math'
p1011
sg15
I400
sg16
g12
sg17
g12
sg18
V/usr/share/fonts/truetype/asana-math/Asana-Math.otf
p1012
sg20
g21
sbag1
(g8
g3
NtRp1013
(dp1014
g11
g49
sg13
S'Accanthis ADF Std No3'
p1015
sg15
I700
sg16
g12
sg17
g12
sg18
V/usr/share/fonts/truetype/adf/AccanthisADFStdNo3-BoldItalic.otf
p1016
sg20
g21
sbag1
(g8
g3
NtRp1017
(dp1018
g11
g49
sg13
S'Gillius ADF Cd'
p1019
sg15
I700
sg16
g12
sg17
g12
sg18
V/usr/share/fonts/truetype/adf/GilliusADFCd-BoldItalic.otf
p1020
sg20
g21
sbag1
(g8
g3
NtRp1021
(dp1022
g11
g49
sg13
S'DejaVu Serif'
p1023
sg15
I400
sg16
g95
sg17
g12
sg18
V/usr/share/fonts/truetype/dejavu/DejaVuSerifCondensed-Italic.ttf
p1024
sg20
g21
sbag1
(g8
g3
NtRp1025
(dp1026
g11
g12
sg13
S'KacstArt'
p1027
sg15
I400
sg16
g12
sg17
g12
sg18
V/usr/share/fonts/truetype/kacst/KacstArt.ttf
p1028
sg20
g21
sbag1
(g8
g3
NtRp1029
(dp1030
g11
g49
sg13
S'Liberation Sans Narrow'
p1031
sg15
I700
sg16
g95
sg17
g12
sg18
V/usr/share/fonts/truetype/liberation/LiberationSansNarrow-BoldItalic.ttf
p1032
sg20
g21
sbag1
(g8
g3
NtRp1033
(dp1034
g11
g12
sg13
S'GFS Didot'
p1035
sg15
I400
sg16
g12
sg17
g12
sg18
V/usr/share/fonts/truetype/didot/GFSDidot.otf
p1036
sg20
g21
sbag1
(g8
g3
NtRp1037
(dp1038
g11
g12
sg13
S'Liberation Sans'
p1039
sg15
I400
sg16
g12
sg17
g12
sg18
V/usr/share/fonts/truetype/liberation/LiberationSans-Regular.ttf
p1040
sg20
g21
sbag1
(g8
g3
NtRp1041
(dp1042
g11
g12
sg13
S'Ubuntu Mono'
p1043
sg15
I700
sg16
g12
sg17
g12
sg18
V/usr/share/fonts/truetype/ubuntu-font-family/UbuntuMono-B.ttf
p1044
sg20
g21
sbag1
(g8
g3
NtRp1045
(dp1046
g11
g12
sg13
S'Adobe Caslon Pro'
p1047
sg15
I400
sg16
g12
sg17
g12
sg18
V/home/usman/.fonts/Library/A/Adobe.ttf
p1048
sg20
g21
sbag1
(g8
g3
NtRp1049
(dp1050
g11
g12
sg13
S'STIXSizeTwoSym'
p1051
sg15
I700
sg16
g12
sg17
g12
sg18
V/usr/share/fonts/opentype/stix/STIXSizeTwoSym-Bold.otf
p1052
sg20
g21
sbag1
(g8
g3
NtRp1053
(dp1054
g11
g12
sg13
S'Rachana'
p1055
sg15
I400
sg16
g12
sg17
g12
sg18
V/usr/share/fonts/truetype/ttf-indic-fonts-core/Rachana_04.ttf
p1056
sg20
g21
sbag1
(g8
g3
NtRp1057
(dp1058
g11
g12
sg13
S'Kinnari'
p1059
sg15
I700
sg16
g12
sg17
g12
sg18
V/usr/share/fonts/truetype/tlwg/Kinnari-Bold.ttf
p1060
sg20
g21
sbag1
(g8
g3
NtRp1061
(dp1062
g11
g49
sg13
S'Lobster Two'
p1063
sg15
I700
sg16
g12
sg17
g12
sg18
V/usr/share/fonts/opentype/lobster/lobster.otf
p1064
sg20
g21
sbag1
(g8
g3
NtRp1065
(dp1066
g11
g44
sg13
S'TlwgTypewriter'
p1067
sg15
I700
sg16
g12
sg17
g12
sg18
V/usr/share/fonts/truetype/tlwg/TlwgTypewriter-BoldOblique.ttf
p1068
sg20
g21
sbag1
(g8
g3
NtRp1069
(dp1070
g11
g49
sg13
S'Gentium Book Basic'
p1071
sg15
I400
sg16
g12
sg17
g12
sg18
V/usr/share/fonts/truetype/gentium-basic/GenBkBasI.ttf
p1072
sg20
g21
sbag1
(g8
g3
NtRp1073
(dp1074
g11
g12
sg13
S'CMU Serif'
p1075
sg15
I400
sg16
g12
sg17
g12
sg18
V/home/usman/.fonts/Library/C/cmunrm.ttf
p1076
sg20
g21
sbag1
(g8
g3
NtRp1077
(dp1078
g11
g12
sg13
S'FreeSerif'
p1079
sg15
I400
sg16
g12
sg17
g12
sg18
V/usr/share/fonts/truetype/freefont/FreeSerif.ttf
p1080
sg20
g21
sbag1
(g8
g3
NtRp1081
(dp1082
g11
g49
sg13
S'STIXGeneral'
p1083
sg15
I400
sg16
g12
sg17
g12
sg18
V/usr/share/fonts/opentype/stix/STIXGeneral-Italic.otf
p1084
sg20
g21
sbag1
(g8
g3
NtRp1085
(dp1086
g11
g12
sg13
S'Monaco'
p1087
sg15
I400
sg16
g12
sg17
g12
sg18
V/home/usman/.local/share/fonts/monaco.ttf
p1088
sg20
g21
sbag1
(g8
g3
NtRp1089
(dp1090
g11
g44
sg13
S'Sawasdee'
p1091
sg15
I700
sg16
g12
sg17
g12
sg18
V/usr/share/fonts/truetype/tlwg/Sawasdee-BoldOblique.ttf
p1092
sg20
g21
sbag1
(g8
g3
NtRp1093
(dp1094
g11
g12
sg13
S'Sawasdee'
p1095
sg15
I700
sg16
g12
sg17
g12
sg18
V/usr/share/fonts/truetype/tlwg/Sawasdee-Bold.ttf
p1096
sg20
g21
sbag1
(g8
g3
NtRp1097
(dp1098
g11
g12
sg13
S'STIXIntegralsSm'
p1099
sg15
I400
sg16
g12
sg17
g12
sg18
V/usr/share/fonts/opentype/stix/STIXIntegralsSm-Regular.otf
p1100
sg20
g21
sbag1
(g8
g3
NtRp1101
(dp1102
g11
g12
sg13
S'Droid Sans Thai'
p1103
sg15
I400
sg16
g12
sg17
g12
sg18
V/usr/share/fonts/truetype/droid/DroidSansThai.ttf
p1104
sg20
g21
sbag1
(g8
g3
NtRp1105
(dp1106
g11
g12
sg13
S'Lohit Gujarati'
p1107
sg15
I400
sg16
g12
sg17
g12
sg18
V/usr/share/fonts/truetype/ttf-indic-fonts-core/lohit_gu.ttf
p1108
sg20
g21
sbag1
(g8
g3
NtRp1109
(dp1110
g11
g12
sg13
S'Accanthis ADF Std'
p1111
sg15
I700
sg16
g12
sg17
g12
sg18
V/usr/share/fonts/truetype/adf/AccanthisADFStd-Bold.otf
p1112
sg20
g21
sbag1
(g8
g3
NtRp1113
(dp1114
g11
g12
sg13
S'MonacoB2'
p1115
sg15
I400
sg16
g12
sg17
g12
sg18
V/home/usman/.fonts/Library/M/MonacoB2.otf
p1116
sg20
g21
sbag1
(g8
g3
NtRp1117
(dp1118
g11
g12
sg13
S'NanumMyeongjo'
p1119
sg15
I400
sg16
g12
sg17
g12
sg18
V/usr/share/fonts/truetype/nanum/NanumMyeongjo.ttf
p1120
sg20
g21
sbag1
(g8
g3
NtRp1121
(dp1122
g11
g12
sg13
S'Linux Libertine Mono O'
p1123
sg15
I400
sg16
g12
sg17
g12
sg18
V/usr/share/fonts/opentype/linux-libertine/LinLibertine_M.otf
p1124
sg20
g21
sbag1
(g8
g3
NtRp1125
(dp1126
g11
g12
sg13
S'STIXGeneral'
p1127
sg15
I700
sg16
g12
sg17
g12
sg18
V/usr/share/fonts/opentype/stix/STIXGeneral-Bold.otf
p1128
sg20
g21
sbag1
(g8
g3
NtRp1129
(dp1130
g11
g12
sg13
S'GFS Complutum'
p1131
sg15
I400
sg16
g12
sg17
g12
sg18
V/usr/share/fonts/truetype/complutum/GFSPolyglot.otf
p1132
sg20
g21
sbag1
(g8
g3
NtRp1133
(dp1134
g11
g12
sg13
S'Loma'
p1135
sg15
I700
sg16
g12
sg17
g12
sg18
V/usr/share/fonts/truetype/tlwg/Loma-Bold.ttf
p1136
sg20
g21
sbag1
(g8
g3
NtRp1137
(dp1138
g11
g12
sg13
S'KacstPen'
p1139
sg15
I400
sg16
g12
sg17
g12
sg18
V/usr/share/fonts/truetype/kacst/KacstPen.ttf
p1140
sg20
g21
sbag1
(g8
g3
NtRp1141
(dp1142
g11
g12
sg13
S'STIXSizeFourSym'
p1143
sg15
I400
sg16
g12
sg17
g12
sg18
V/usr/share/fonts/opentype/stix/STIXSizeFourSym-Regular.otf
p1144
sg20
g21
sbag1
(g8
g3
NtRp1145
(dp1146
g11
g49
sg13
S'Linux Libertine O'
p1147
sg15
I700
sg16
g12
sg17
g12
sg18
V/usr/share/fonts/opentype/linux-libertine/LinLibertine_RBI.otf
p1148
sg20
g21
sbag1
(g8
g3
NtRp1149
(dp1150
g11
g49
sg13
S'FreeSerif'
p1151
sg15
I400
sg16
g12
sg17
g12
sg18
V/usr/share/fonts/truetype/freefont/FreeSerifItalic.ttf
p1152
sg20
g21
sbag1
(g8
g3
NtRp1153
(dp1154
g11
g49
sg13
S'Cabin'
p1155
sg15
I700
sg16
g12
sg17
g12
sg18
V/usr/share/fonts/opentype/cabin/Cabin-BoldItalic.otf
p1156
sg20
g21
sbag1
(g8
g3
NtRp1157
(dp1158
g11
g12
sg13
S'Roboto'
p1159
sg15
I400
sg16
g12
sg17
g12
sg18
V/home/usman/.local/share/fonts/Roboto-Regular.ttf
p1160
sg20
g21
sbag1
(g8
g3
NtRp1161
(dp1162
g11
g12
sg13
S'Droid Sans Japanese'
p1163
sg15
I400
sg16
g12
sg17
g12
sg18
V/usr/share/fonts/truetype/droid/DroidSansJapanese.ttf
p1164
sg20
g21
sbag1
(g8
g3
NtRp1165
(dp1166
g11
g49
sg13
S'Liberation Sans Narrow'
p1167
sg15
I400
sg16
g95
sg17
g12
sg18
V/usr/share/fonts/truetype/liberation/LiberationSansNarrow-Italic.ttf
p1168
sg20
g21
sbag1
(g8
g3
NtRp1169
(dp1170
g11
g12
sg13
S'Mallige'
p1171
sg15
I700
sg16
g12
sg17
g12
sg18
V/usr/share/fonts/truetype/ttf-indic-fonts-core/Malige-b.ttf
p1172
sg20
g21
sbag1
(g8
g3
NtRp1173
(dp1174
g11
g49
sg13
S'Accanthis ADF Std No2'
p1175
sg15
I400
sg16
g12
sg17
g12
sg18
V/usr/share/fonts/truetype/adf/AccanthisADFStdNo2-Italic.otf
p1176
sg20
g21
sbag1
(g8
g3
NtRp1177
(dp1178
g11
g49
sg13
S'DejaVu Serif'
p1179
sg15
I700
sg16
g95
sg17
g12
sg18
V/usr/share/fonts/truetype/dejavu/DejaVuSerifCondensed-BoldItalic.ttf
p1180
sg20
g21
sbag1
(g8
g3
NtRp1181
(dp1182
g11
g12
sg13
S'STIXIntegralsUpSm'
p1183
sg15
I400
sg16
g12
sg17
g12
sg18
V/usr/share/fonts/opentype/stix/STIXIntegralsUpSm-Regular.otf
p1184
sg20
g21
sbag1
(g8
g3
NtRp1185
(dp1186
g11
g49
sg13
S'Junicode'
p1187
sg15
I400
sg16
g12
sg17
g12
sg18
V/usr/share/fonts/truetype/junicode/Junicode-Italic.ttf
p1188
sg20
g21
sbag1
(g8
g3
NtRp1189
(dp1190
g11
g12
sg13
S'FreeMono'
p1191
sg15
I400
sg16
g12
sg17
g12
sg18
V/usr/share/fonts/opentype/freefont/FreeMono.otf
p1192
sg20
g21
sbag1
(g8
g3
NtRp1193
(dp1194
g11
g12
sg13
S'Droid Serif'
p1195
sg15
I700
sg16
g12
sg17
g12
sg18
V/usr/share/fonts/truetype/droid/DroidSerif-Bold.ttf
p1196
sg20
g21
sbag1
(g8
g3
NtRp1197
(dp1198
g11
g12
sg13
S'Meera'
p1199
sg15
I400
sg16
g12
sg17
g12
sg18
V/usr/share/fonts/truetype/ttf-indic-fonts-core/Meera_04.ttf
p1200
sg20
g21
sbag1
(g8
g3
NtRp1201
(dp1202
g11
g44
sg13
S'Umpush'
p1203
sg15
I200
sg16
g12
sg17
g12
sg18
V/usr/share/fonts/truetype/tlwg/Umpush-LightOblique.ttf
p1204
sg20
g21
sbag1
(g8
g3
NtRp1205
(dp1206
g11
g12
sg13
S'Tlwg Typo'
p1207
sg15
I400
sg16
g12
sg17
g12
sg18
V/usr/share/fonts/truetype/tlwg/TlwgTypo.ttf
p1208
sg20
g21
sbag1
(g8
g3
NtRp1209
(dp1210
g11
g12
sg13
S'Gentium'
p1211
sg15
I400
sg16
g12
sg17
g12
sg18
V/usr/share/fonts/truetype/gentium/GenR102.ttf
p1212
sg20
g21
sbag1
(g8
g3
NtRp1213
(dp1214
g11
g44
sg13
S'FreeSans'
p1215
sg15
I400
sg16
g12
sg17
g12
sg18
V/usr/share/fonts/truetype/freefont/FreeSansOblique.ttf
p1216
sg20
g21
sbag1
(g8
g3
NtRp1217
(dp1218
g11
g12
sg13
S'Gentium Basic'
p1219
sg15
I700
sg16
g12
sg17
g12
sg18
V/usr/share/fonts/truetype/gentium-basic/GenBasB.ttf
p1220
sg20
g21
sbag1
(g8
g3
NtRp1221
(dp1222
g11
g12
sg13
S'Liberation Sans'
p1223
sg15
I700
sg16
g12
sg17
g12
sg18
V/usr/share/fonts/truetype/liberation/LiberationSans-Bold.ttf
p1224
sg20
g21
sbag1
(g8
g3
NtRp1225
(dp1226
g11
g12
sg13
S'Accanthis ADF Std No3'
p1227
sg15
I700
sg16
g12
sg17
g12
sg18
V/usr/share/fonts/truetype/adf/AccanthisADFStdNo3-Bold.otf
p1228
sg20
g21
sbag1
(g8
g3
NtRp1229
(dp1230
g11
g12
sg13
S'Liberation Mono'
p1231
sg15
I400
sg16
g12
sg17
g12
sg18
V/usr/share/fonts/truetype/liberation/LiberationMono-Regular.ttf
p1232
sg20
g21
sbag1
(g8
g3
NtRp1233
(dp1234
g11
g12
sg13
S'STIXVariants'
p1235
sg15
I400
sg16
g12
sg17
g12
sg18
V/usr/share/fonts/opentype/stix/STIXVariants-Regular.otf
p1236
sg20
g21
sbag1
(g8
g3
NtRp1237
(dp1238
g11
g12
sg13
S'Gentium Book Basic'
p1239
sg15
I700
sg16
g12
sg17
g12
sg18
V/usr/share/fonts/truetype/gentium-basic/GenBkBasB.ttf
p1240
sg20
g21
sbag1
(g8
g3
NtRp1241
(dp1242
g11
g12
sg13
S'Garuda'
p1243
sg15
I400
sg16
g12
sg17
g12
sg18
V/usr/share/fonts/truetype/tlwg/Garuda.ttf
p1244
sg20
g21
sbag1
(g8
g3
NtRp1245
(dp1246
g11
g12
sg13
S'mry_KacstQurn'
p1247
sg15
I400
sg16
g12
sg17
g12
sg18
V/usr/share/fonts/truetype/kacst/mry_KacstQurn.ttf
p1248
sg20
g21
sbag1
(g8
g3
NtRp1249
(dp1250
g11
g12
sg13
S'Lato'
p1251
sg15
I200
sg16
g12
sg17
g12
sg18
V/usr/share/fonts/truetype/lato/Lato-Lig.ttf
p1252
sg20
g21
sbag1
(g8
g3
NtRp1253
(dp1254
g11
g12
sg13
S'Tibetan Machine Uni'
p1255
sg15
I400
sg16
g12
sg17
g12
sg18
V/usr/share/fonts/truetype/tibetan-machine/TibetanMachineUni.ttf
p1256
sg20
g21
sbag1
(g8
g3
NtRp1257
(dp1258
g11
g49
sg13
S'Cabin'
p1259
sg15
I700
sg16
g12
sg17
g12
sg18
V/usr/share/fonts/opentype/cabin/Cabin-SemiBoldItalic.otf
p1260
sg20
g21
sbag1
(g8
g3
NtRp1261
(dp1262
g11
g49
sg13
S'Accanthis ADF Std'
p1263
sg15
I700
sg16
g12
sg17
g12
sg18
V/usr/share/fonts/truetype/adf/AccanthisADFStd-BoldItalic.otf
p1264
sg20
g21
sbag1
(g8
g3
NtRp1265
(dp1266
g11
g12
sg13
S'KacstOne'
p1267
sg15
I700
sg16
g12
sg17
g12
sg18
V/usr/share/fonts/truetype/kacst-one/KacstOne-Bold.ttf
p1268
sg20
g21
sbag1
(g8
g3
NtRp1269
(dp1270
g11
g12
sg13
S'Scheherazade'
p1271
sg15
I400
sg16
g12
sg17
g12
sg18
V/usr/share/fonts/truetype/scheherazade/ScheherazadeRegOT.ttf
p1272
sg20
g21
sbag1
(g8
g3
NtRp1273
(dp1274
g11
g12
sg13
S'Linux Libertine Display O'
p1275
sg15
I400
sg16
g12
sg17
g12
sg18
V/usr/share/fonts/opentype/linux-libertine/LinLibertine_DR.otf
p1276
sg20
g21
sbag1
(g8
g3
NtRp1277
(dp1278
g11
g12
sg13
S'Lobster Two'
p1279
sg15
I400
sg16
g12
sg17
g12
sg18
V/usr/share/fonts/opentype/lobstertwo/LobsterTwo-Regular.otf
p1280
sg20
g21
sbag1
(g8
g3
NtRp1281
(dp1282
g11
g12
sg13
S'MonacoB'
p1283
sg15
I400
sg16
g12
sg17
g12
sg18
V/home/usman/.fonts/Library/M/MonacoB.otf
p1284
sg20
g21
sbag1
(g8
g3
NtRp1285
(dp1286
g11
g12
sg13
S'KacstDigital'
p1287
sg15
I400
sg16
g12
sg17
g12
sg18
V/usr/share/fonts/truetype/kacst/KacstDigital.ttf
p1288
sg20
g21
sbag1
(g8
g3
NtRp1289
(dp1290
g11
g44
sg13
S'FreeMono'
p1291
sg15
I400
sg16
g12
sg17
g12
sg18
V/usr/share/fonts/opentype/freefont/FreeMonoOblique.otf
p1292
sg20
g21
sbag1
(g8
g3
NtRp1293
(dp1294
g11
g12
sg13
S'STIXIntegralsUpD'
p1295
sg15
I400
sg16
g12
sg17
g12
sg18
V/usr/share/fonts/opentype/stix/STIXIntegralsUpD-Regular.otf
p1296
sg20
g21
sbag1
(g8
g3
NtRp1297
(dp1298
g11
g12
sg13
S'MonacoBSemi'
p1299
sg15
I400
sg16
g12
sg17
g12
sg18
V/home/usman/.fonts/Library/M/Monaco.otf
p1300
sg20
g21
sbag1
(g8
g3
NtRp1301
(dp1302
g11
g49
sg13
S'Gillius ADF'
p1303
sg15
I700
sg16
g12
sg17
g12
sg18
V/usr/share/fonts/truetype/adf/GilliusADF-BoldItalic.otf
p1304
sg20
g21
sbag1
(g8
g3
NtRp1305
(dp1306
g11
g49
sg13
S'Cabin'
p1307
sg15
I500
sg16
g12
sg17
g12
sg18
V/usr/share/fonts/opentype/cabin/Cabin-MediumItalic.otf
p1308
sg20
g21
sbag1
(g8
g3
NtRp1309
(dp1310
g11
g12
sg13
S'Droid Sans Georgian'
p1311
sg15
I400
sg16
g12
sg17
g12
sg18
V/usr/share/fonts/truetype/droid/DroidSansGeorgian.ttf
p1312
sg20
g21
sbag1
(g8
g3
NtRp1313
(dp1314
g11
g12
sg13
S'GFS Artemisia'
p1315
sg15
I400
sg16
g12
sg17
g12
sg18
V/usr/share/fonts/truetype/artemisia/GFSArtemisia.otf
p1316
sg20
g21
sbag1
(g8
g3
NtRp1317
(dp1318
g11
g49
sg13
S'Linux Libertine O'
p1319
sg15
I400
sg16
g12
sg17
g12
sg18
V/usr/share/fonts/opentype/linux-libertine/LinLibertine_RI.otf
p1320
sg20
g21
sbag1
(g8
g3
NtRp1321
(dp1322
g11
g12
sg13
S'Linux Biolinum O'
p1323
sg15
I400
sg16
g12
sg17
g12
sg18
V/usr/share/fonts/opentype/linux-libertine/LinBiolinum_R.otf
p1324
sg20
g21
sbag1
(g8
g3
NtRp1325
(dp1326
g11
g12
sg13
S'Padauk'
p1327
sg15
I700
sg16
g12
sg17
g12
sg18
V/usr/share/fonts/truetype/padauk/Padauk-bold.ttf
p1328
sg20
g21
sbag1
(g8
g3
NtRp1329
(dp1330
g11
g12
sg13
S'Rekha'
p1331
sg15
I400
sg16
g12
sg17
g12
sg18
V/usr/share/fonts/truetype/ttf-indic-fonts-core/Rekha.ttf
p1332
sg20
g21
sbag1
(g8
g3
NtRp1333
(dp1334
g11
g12
sg13
S'GentiumAlt'
p1335
sg15
I400
sg16
g12
sg17
g12
sg18
V/usr/share/fonts/truetype/gentium/GenAR102.ttf
p1336
sg20
g21
sbag1
(g8
g3
NtRp1337
(dp1338
g11
g44
sg13
S'Umpush'
p1339
sg15
I700
sg16
g12
sg17
g12
sg18
V/usr/share/fonts/truetype/tlwg/Umpush-BoldOblique.ttf
p1340
sg20
g21
sbag1
(g8
g3
NtRp1341
(dp1342
g11
g49
sg13
S'Gillius ADF No2'
p1343
sg15
I700
sg16
g12
sg17
g12
sg18
V/usr/share/fonts/truetype/adf/GilliusADFNo2-BoldItalic.otf
p1344
sg20
g21
sbag1
(g8
g3
NtRp1345
(dp1346
g11
g12
sg13
S'Tlwg Typo'
p1347
sg15
I700
sg16
g12
sg17
g12
sg18
V/usr/share/fonts/truetype/tlwg/TlwgTypo-Bold.ttf
p1348
sg20
g21
sbag1
(g8
g3
NtRp1349
(dp1350
g11
g49
sg13
S'Liberation Serif'
p1351
sg15
I400
sg16
g12
sg17
g12
sg18
V/usr/share/fonts/truetype/liberation/LiberationSerif-Italic.ttf
p1352
sg20
g21
sbag1
(g8
g3
NtRp1353
(dp1354
g11
g12
sg13
S'TlwgTypewriter'
p1355
sg15
I700
sg16
g12
sg17
g12
sg18
V/usr/share/fonts/truetype/tlwg/TlwgTypewriter-Bold.ttf
p1356
sg20
g21
sbag1
(g8
g3
NtRp1357
(dp1358
g11
g44
sg13
S'Waree'
p1359
sg15
I700
sg16
g12
sg17
g12
sg18
V/usr/share/fonts/truetype/tlwg/Waree-BoldOblique.ttf
p1360
sg20
g21
sbag1
(g8
g3
NtRp1361
(dp1362
g11
g12
sg13
S'STIXNonUnicode'
p1363
sg15
I700
sg16
g12
sg17
g12
sg18
V/usr/share/fonts/opentype/stix/STIXNonUnicode-Bold.otf
p1364
sg20
g21
sbag1
(g8
g3
NtRp1365
(dp1366
g11
g12
sg13
S'Input'
p1367
sg15
I700
sg16
g12
sg17
g12
sg18
V/home/usman/.fonts/Library/I/Input-Bold_(InputSansCondensed-Bold).ttf
p1368
sg20
g21
sbag1
(g8
g3
NtRp1369
(dp1370
g11
g49
sg13
S'FreeSerif'
p1371
sg15
I700
sg16
g12
sg17
g12
sg18
V/usr/share/fonts/truetype/freefont/FreeSerifBoldItalic.ttf
p1372
sg20
g21
sbag1
(g8
g3
NtRp1373
(dp1374
g11
g12
sg13
S'Vemana2000'
p1375
sg15
I400
sg16
g12
sg17
g12
sg18
V/usr/share/fonts/truetype/ttf-indic-fonts-core/Vemana.ttf
p1376
sg20
g21
sbag1
(g8
g3
NtRp1377
(dp1378
g11
g12
sg13
S'STIXSizeThreeSym'
p1379
sg15
I700
sg16
g12
sg17
g12
sg18
V/usr/share/fonts/opentype/stix/STIXSizeThreeSym-Bold.otf
p1380
sg20
g21
sbag1
(g8
g3
NtRp1381
(dp1382
g11
g44
sg13
S'Tlwg Typo'
p1383
sg15
I400
sg16
g12
sg17
g12
sg18
V/usr/share/fonts/truetype/tlwg/TlwgTypo-Oblique.ttf
p1384
sg20
g21
sbag1
(g8
g3
NtRp1385
(dp1386
g11
g12
sg13
S'Zapfino Extra LT'
p1387
sg15
I400
sg16
g12
sg17
g12
sg18
V/home/usman/.local/share/fonts/ZapfinoExtraLT-One.otf
p1388
sg20
g21
sbag1
(g8
g3
NtRp1389
(dp1390
g11
g12
sg13
S'Droid Sans'
p1391
sg15
I700
sg16
g12
sg17
g12
sg18
V/usr/share/fonts/truetype/droid/DroidSans-Bold.ttf
p1392
sg20
g21
sbag1
(g8
g3
NtRp1393
(dp1394
g11
g44
sg13
S'Waree'
p1395
sg15
I400
sg16
g12
sg17
g12
sg18
V/usr/share/fonts/truetype/tlwg/Waree-Oblique.ttf
p1396
sg20
g21
sbag1
(g8
g3
NtRp1397
(dp1398
g11
g12
sg13
S'GFS Neohellenic'
p1399
sg15
I400
sg16
g12
sg17
g12
sg18
V/usr/share/fonts/truetype/neohellenic/GFSNeohellenic.otf
p1400
sg20
g21
sbag1
(g8
g3
NtRp1401
(dp1402
g11
g12
sg13
S'Norasi'
p1403
sg15
I400
sg16
g12
sg17
g12
sg18
V/usr/share/fonts/truetype/tlwg/Norasi.ttf
p1404
sg20
g21
sbag1
(g8
g3
NtRp1405
(dp1406
g11
g49
sg13
S'Ubuntu'
p1407
sg15
I500
sg16
g12
sg17
g12
sg18
V/usr/share/fonts/truetype/ubuntu-font-family/Ubuntu-MI.ttf
p1408
sg20
g21
sbag1
(g8
g3
NtRp1409
(dp1410
g11
g12
sg13
S'Kedage'
p1411
sg15
I400
sg16
g12
sg17
g12
sg18
V/usr/share/fonts/truetype/ttf-indic-fonts-core/Kedage-n.ttf
p1412
sg20
g21
sbag1
(g8
g3
NtRp1413
(dp1414
g11
g12
sg13
S'Gillius ADF No2'
p1415
sg15
I400
sg16
g12
sg17
g12
sg18
V/usr/share/fonts/truetype/adf/GilliusADFNo2-Regular.otf
p1416
sg20
g21
sbag1
(g8
g3
NtRp1417
(dp1418
g11
g12
sg13
S'MonacoB'
p1419
sg15
I700
sg16
g12
sg17
g12
sg18
V/home/usman/.fonts/Library/M/MonacoB-Bold.otf
p1420
sg20
g21
sbag1
(g8
g3
NtRp1421
(dp1422
g11
g12
sg13
S'STIXSizeFourSym'
p1423
sg15
I700
sg16
g12
sg17
g12
sg18
V/usr/share/fonts/opentype/stix/STIXSizeFourSym-Bold.otf
p1424
sg20
g21
sbag1
(g8
g3
NtRp1425
(dp1426
g11
g12
sg13
S'Optima'
p1427
sg15
I400
sg16
g12
sg17
g12
sg18
V/home/usman/.fonts/Library/O/Optima-Regular.ttf
p1428
sg20
g21
sbag1
(g8
g3
NtRp1429
(dp1430
g11
g49
sg13
S'CMU Serif'
p1431
sg15
I400
sg16
g12
sg17
g12
sg18
V/home/usman/.fonts/Library/C/cmunti.ttf
p1432
sg20
g21
sbag1
(g8
g3
NtRp1433
(dp1434
g11
g49
sg13
S'Linux Biolinum O'
p1435
sg15
I400
sg16
g12
sg17
g12
sg18
V/usr/share/fonts/opentype/linux-libertine/LinBiolinum_RI.otf
p1436
sg20
g21
sbag1
(g8
g3
NtRp1437
(dp1438
g11
g12
sg13
S'KacstQurn'
p1439
sg15
I400
sg16
g12
sg17
g12
sg18
V/usr/share/fonts/truetype/kacst/KacstQurn.ttf
p1440
sg20
g21
sbag1
(g8
g3
NtRp1441
(dp1442
g11
g44
sg13
S'FreeSans'
p1443
sg15
I700
sg16
g12
sg17
g12
sg18
V/usr/share/fonts/opentype/freefont/FreeSansBoldOblique.otf
p1444
sg20
g21
sbag1
(g8
g3
NtRp1445
(dp1446
g11
g12
sg13
S'Padauk Book'
p1447
sg15
I400
sg16
g12
sg17
g12
sg18
V/usr/share/fonts/truetype/padauk/Padauk-book.ttf
p1448
sg20
g21
sbag1
(g8
g3
NtRp1449
(dp1450
g11
g12
sg13
S'KacstOffice'
p1451
sg15
I400
sg16
g12
sg17
g12
sg18
V/usr/share/fonts/truetype/kacst/KacstOffice.ttf
p1452
sg20
g21
sbag1
(g8
g3
NtRp1453
(dp1454
g11
g12
sg13
S'Abyssinica SIL'
p1455
sg15
I400
sg16
g12
sg17
g12
sg18
V/usr/share/fonts/truetype/abyssinica/AbyssinicaSIL-R.ttf
p1456
sg20
g21
sbag1
(g8
g3
NtRp1457
(dp1458
g11
g49
sg13
S'FreeSerif'
p1459
sg15
I700
sg16
g12
sg17
g12
sg18
V/usr/share/fonts/opentype/freefont/FreeSerifBoldItalic.otf
p1460
sg20
g21
sbag1
(g8
g3
NtRp1461
(dp1462
g11
g12
sg13
S'STIXIntegralsUpD'
p1463
sg15
I700
sg16
g12
sg17
g12
sg18
V/usr/share/fonts/opentype/stix/STIXIntegralsUpD-Bold.otf
p1464
sg20
g21
sbag1
(g8
g3
NtRp1465
(dp1466
g11
g12
sg13
S'Loma'
p1467
sg15
I400
sg16
g12
sg17
g12
sg18
V/usr/share/fonts/truetype/tlwg/Loma.ttf
p1468
sg20
g21
sbag1
(g8
g3
NtRp1469
(dp1470
g11
g44
sg13
S'Garuda'
p1471
sg15
I400
sg16
g12
sg17
g12
sg18
V/usr/share/fonts/truetype/tlwg/Garuda-Oblique.ttf
p1472
sg20
g21
sbag1
(g8
g3
NtRp1473
(dp1474
g11
g44
sg13
S'Tlwg Typo'
p1475
sg15
I700
sg16
g12
sg17
g12
sg18
V/usr/share/fonts/truetype/tlwg/TlwgTypo-BoldOblique.ttf
p1476
sg20
g21
sbag1
(g8
g3
NtRp1477
(dp1478
g11
g12
sg13
S'FreeMono'
p1479
sg15
I700
sg16
g12
sg17
g12
sg18
V/usr/share/fonts/opentype/freefont/FreeMonoBold.otf
p1480
sg20
g21
sbag1
(g8
g3
NtRp1481
(dp1482
g11
g12
sg13
S'KacstTitleL'
p1483
sg15
I400
sg16
g12
sg17
g12
sg18
V/usr/share/fonts/truetype/kacst/KacstTitleL.ttf
p1484
sg20
g21
sbag1
(g8
g3
NtRp1485
(dp1486
g11
g12
sg13
S'Droid Sans Hebrew'
p1487
sg15
I400
sg16
g12
sg17
g12
sg18
V/usr/share/fonts/truetype/droid/DroidSansHebrew-Regular.ttf
p1488
sg20
g21
sbasS'defaultFamily'
p1489
(dp1490
Vafm
p1491
VHelvetica
p1492
sVttf
p1493
VBitstream Vera Sans
p1494
ssS'ttffiles'
p1495
(lp1496
g19
ag25
ag29
ag33
ag37
ag41
ag46
ag51
ag55
ag59
ag63
ag67
ag71
ag75
ag79
ag83
ag87
ag91
ag96
ag100
ag104
ag108
ag112
ag116
ag120
ag124
ag128
ag132
ag136
ag140
ag144
ag148
ag152
ag156
ag160
ag164
ag168
ag172
ag176
ag180
ag184
ag188
ag192
ag196
ag200
ag204
ag208
ag212
ag216
ag220
ag224
ag228
ag232
ag236
ag240
ag244
ag248
ag252
ag256
ag260
ag264
ag268
ag272
ag276
ag280
ag284
ag288
ag292
ag296
ag300
ag304
ag308
ag312
ag316
ag320
ag324
ag328
ag332
ag336
ag340
ag344
ag348
ag352
ag356
ag360
ag364
ag368
ag372
ag376
ag380
ag384
ag388
ag392
ag396
ag400
ag404
ag408
ag412
ag416
ag420
ag424
ag428
ag432
ag436
ag440
ag444
ag448
ag452
ag456
ag460
ag464
ag468
ag472
ag476
ag480
ag484
ag488
ag492
ag496
ag500
ag504
ag508
ag512
ag516
ag520
ag524
ag528
ag532
ag536
ag540
ag544
ag548
ag552
ag556
ag560
ag564
ag568
ag572
ag576
ag580
ag584
ag588
ag592
ag596
ag600
ag604
ag608
ag612
ag616
ag620
ag624
ag628
ag632
ag636
ag640
ag644
ag648
ag652
ag656
ag660
ag664
ag668
ag672
ag676
ag680
ag684
ag688
ag692
ag696
ag700
ag704
ag708
aV/usr/share/fonts/truetype/dejavu/DejaVuSans.ttf
p1497
ag712
ag716
ag720
ag724
ag728
ag732
ag736
ag740
ag744
ag748
ag752
ag756
ag760
aV/home/usman/.fonts/PowerlineSymbols.otf
p1498
ag764
ag768
ag772
ag776
ag780
ag784
ag788
ag792
aV/home/usman/.fonts/Library/M/Monaco_Linux-Powerline.ttf
p1499
ag796
ag800
ag804
ag808
ag812
ag816
ag820
ag824
ag828
ag832
ag836
ag840
ag844
ag848
ag852
ag856
ag860
ag864
ag868
ag872
ag876
ag880
ag884
ag888
ag892
aV/home/usman/.local/share/fonts/Roboto-Italic.ttf
p1500
ag896
ag900
ag904
ag908
ag912
ag916
ag920
ag924
ag928
ag932
ag936
ag940
ag944
ag948
ag952
ag956
aV/usr/share/fonts/truetype/ttf-dejavu/DejaVuSans-Bold.ttf
p1501
ag960
ag964
ag968
ag972
ag976
ag980
aV/home/usman/.fonts/Library/F/fontawesome-webfont.ttf
p1502
ag984
ag988
ag992
ag996
ag1000
ag1004
ag1008
ag1012
ag1016
ag1020
ag1024
ag1028
ag1032
ag1036
ag1040
ag1044
ag1048
ag1052
ag1056
ag1060
ag1064
ag1068
ag1072
aV/usr/share/fonts/truetype/dejavu/DejaVuSerif-Bold.ttf
p1503
ag1076
ag1080
ag1084
ag1088
ag1092
ag1096
ag1100
ag1104
ag1108
ag1112
ag1116
ag1120
ag1124
ag1128
ag1132
ag1136
ag1140
ag1144
ag1148
ag1152
ag1156
ag1160
ag1164
ag1168
ag1172
ag1176
ag1180
ag1184
ag1188
ag1192
ag1196
ag1200
ag1204
ag1208
ag1212
aV/usr/share/fonts/truetype/ttf-dejavu/DejaVuSerif.ttf
p1504
ag1216
ag1220
ag1224
ag1228
ag1232
ag1236
ag1240
ag1244
ag1248
ag1252
ag1256
ag1260
ag1264
ag1268
ag1272
ag1276
ag1280
ag1284
ag1288
ag1292
ag1296
ag1300
ag1304
ag1308
ag1312
ag1316
ag1320
ag1324
ag1328
aV/usr/share/fonts/truetype/dejavu/DejaVuSansMono.ttf
p1505
ag1332
ag1336
ag1340
ag1344
ag1348
ag1352
ag1356
ag1360
ag1364
ag1368
aV/usr/share/fonts/truetype/ttf-dejavu/DejaVuSansMono-Bold.ttf
p1506
ag1372
ag1376
ag1380
ag1384
ag1388
ag1392
ag1396
ag1400
ag1404
ag1408
ag1412
ag1416
ag1420
ag1424
ag1428
ag1432
ag1436
ag1440
ag1444
ag1448
ag1452
ag1456
ag1460
ag1464
ag1468
ag1472
ag1476
ag1480
ag1484
ag1488
asS'_FontManager__default_weight'
p1507
Vnormal
p1508
sS'_version'
p1509
I101
sS'default_size'
p1510
NsS'defaultFont'
p1511
(dp1512
g1491
V/usr/share/fonts/X11/Type1/lmtt10.afm
p1513
sg1493
g19
ssS'afmfiles'
p1514
(lp1515
g1513
aV/usr/share/fonts/type1/gsfonts/p052004l.afm
p1516
aV/usr/share/fonts/X11/Type1/lmssqo8.afm
p1517
aV/usr/share/fonts/type1/gsfonts/n019064l.afm
p1518
aV/usr/share/fonts/type1/gsfonts/b018015l.afm
p1519
aV/usr/share/fonts/X11/Type1/lmbxo10.afm
p1520
aV/usr/share/fonts/type1/gsfonts/c059036l.afm
p1521
aV/usr/share/fonts/type1/texlive-fonts-recommended/uplbi8a.afm
p1522
aV/usr/share/fonts/type1/gsfonts/n022024l.afm
p1523
aV/usr/share/fonts/X11/Type1/qzcmi.afm
p1524
aV/usr/share/fonts/X11/Type1/lmtlc10.afm
p1525
aV/usr/share/fonts/X11/Type1/Symbol.afm
p1526
aV/usr/share/fonts/X11/Type1/lmtk10.afm
p1527
aV/usr/share/fonts/X11/Type1/qbkr.afm
p1528
aV/usr/share/fonts/X11/Type1/lmdunh10.afm
p1529
aV/usr/share/fonts/type1/gsfonts/n019003l.afm
p1530
aV/usr/share/fonts/X11/Type1/lmduno10.afm
p1531
aV/usr/share/fonts/type1/texlive-fonts-recommended/ucrro8a.afm
p1532
aV/usr/share/fonts/type1/texlive-fonts-recommended/ubkli8a.afm
p1533
aV/usr/share/fonts/type1/texlive-fonts-recommended/uhvbo8ac.afm
p1534
aV/usr/share/fonts/type1/texlive-fonts-recommended/uagk8a.afm
p1535
aV/usr/share/fonts/type1/texlive-fonts-recommended/uhvro8a.afm
p1536
aV/usr/share/fonts/X11/Type1/lmtti10.afm
p1537
aV/usr/share/fonts/X11/Type1/qcrr.afm
p1538
aV/usr/share/fonts/type1/texlive-fonts-recommended/ubkdi8a.afm
p1539
aV/usr/share/fonts/type1/texlive-fonts-recommended/pcrro8a.afm
p1540
aV/usr/share/fonts/type1/texlive-fonts-recommended/uncb8a.afm
p1541
aV/usr/share/fonts/type1/texlive-fonts-recommended/putri8a.afm
p1542
aV/usr/share/fonts/X11/Type1/qhvcb.afm
p1543
aV/usr/share/fonts/X11/Type1/lmssbx10.afm
p1544
aV/usr/share/fonts/X11/Type1/lmvtlo10.afm
p1545
aV/usr/share/fonts/X11/Type1/lmssbo10.afm
p1546
aV/usr/share/fonts/X11/Type1/lmtcso10.afm
p1547
aV/usr/share/fonts/type1/gsfonts/c059013l.afm
p1548
aV/usr/share/fonts/X11/Type1/c0419bt_.afm
p1549
aV/usr/share/fonts/type1/gsfonts/n021024l.afm
p1550
aV/usr/share/fonts/type1/gsfonts/n019024l.afm
p1551
aV/usr/share/fonts/X11/Type1/qhvbi.afm
p1552
aV/usr/share/fonts/X11/Type1/qcsb.afm
p1553
aV/usr/share/fonts/X11/Type1/lmbx10.afm
p1554
aV/usr/share/fonts/type1/gsfonts/d050000l.afm
p1555
aV/usr/share/fonts/X11/Type1/lmssdo10.afm
p1556
aV/usr/share/fonts/X11/Type1/lmssqbx8.afm
p1557
aV/usr/share/fonts/X11/Type1/qhvb.afm
p1558
aV/usr/share/fonts/X11/Type1/c0649bt_.afm
p1559
aV/usr/share/fonts/type1/texlive-fonts-recommended/ucrr8a.afm
p1560
aV/usr/share/fonts/type1/gsfonts/n019044l.afm
p1561
aV/usr/share/fonts/type1/gsfonts/z003034l.afm
p1562
aV/usr/share/fonts/X11/Type1/qhvr.afm
p1563
aV/usr/share/fonts/X11/Type1/lmbxi10.afm
p1564
aV/usr/share/fonts/X11/Type1/lmcsco10.afm
p1565
aV/usr/share/fonts/type1/texlive-fonts-recommended/putr8a.afm
p1566
aV/usr/share/fonts/type1/gsfonts/b018012l.afm
p1567
aV/usr/share/fonts/X11/Type1/qagri.afm
p1568
aV/usr/share/fonts/X11/Type1/qplr.afm
p1569
aV/usr/share/fonts/type1/texlive-fonts-recommended/uhvbo8a.afm
p1570
aV/usr/share/fonts/X11/Type1/qcsr.afm
p1571
aV/usr/share/fonts/X11/Type1/qbkbi.afm
p1572
aV/usr/share/fonts/type1/texlive-fonts-recommended/utmri8a.afm
p1573
aV/usr/share/fonts/type1/gsfonts/a010013l.afm
p1574
aV/usr/share/fonts/X11/Type1/c0583bt_.afm
p1575
aV/usr/share/fonts/type1/texlive-fonts-recommended/ucrb8a.afm
p1576
aV/usr/share/fonts/type1/texlive-fonts-recommended/ucrbo8a.afm
p1577
aV/usr/share/fonts/type1/texlive-fonts-recommended/uplri8a.afm
p1578
aV/usr/share/fonts/type1/texlive-fonts-recommended/bchbi8a.afm
p1579
aV/usr/share/fonts/X11/Type1/lmcsc10.afm
p1580
aV/usr/share/fonts/X11/Type1/qagbi.afm
p1581
aV/usr/share/fonts/X11/Type1/qbkb.afm
p1582
aV/usr/share/fonts/X11/Type1/qcrb.afm
p1583
aV/usr/share/fonts/X11/Type1/lmssqbo8.afm
p1584
aV/usr/share/fonts/type1/gsfonts/p052003l.afm
p1585
aV/usr/share/fonts/type1/gsfonts/b018032l.afm
p1586
aV/usr/share/fonts/X11/Type1/lmvtk10.afm
p1587
aV/usr/share/fonts/type1/gsfonts/n021023l.afm
p1588
aV/usr/share/fonts/X11/Type1/qhvri.afm
p1589
aV/usr/share/fonts/X11/Type1/lmtlo10.afm
p1590
aV/usr/share/fonts/X11/Type1/lmvtl10.afm
p1591
aV/usr/share/fonts/type1/gsfonts/n021003l.afm
p1592
aV/usr/share/fonts/X11/Type1/c0611bt_.afm
p1593
aV/usr/share/fonts/type1/gsfonts/s050000l.afm
p1594
aV/usr/share/fonts/type1/gsfonts/n021004l.afm
p1595
aV/usr/share/fonts/type1/gsfonts/p052024l.afm
p1596
aV/usr/share/fonts/X11/Type1/qtmri.afm
p1597
aV/usr/share/fonts/type1/texlive-fonts-recommended/uncr8a.afm
p1598
aV/usr/share/fonts/X11/Type1/qcrbi.afm
p1599
aV/usr/share/fonts/X11/Type1/lmb10.afm
p1600
aV/usr/share/fonts/X11/Type1/qcsri.afm
p1601
aV/usr/share/fonts/type1/gsfonts/n019063l.afm
p1602
aV/usr/share/fonts/X11/Type1/qtmr.afm
p1603
aV/usr/share/fonts/X11/Type1/lmtcsc10.afm
p1604
aV/usr/share/fonts/type1/texlive-fonts-recommended/putb8a.afm
p1605
aV/usr/share/fonts/X11/Type1/qagb.afm
p1606
aV/usr/share/fonts/X11/Type1/c0633bt_.afm
p1607
aV/usr/share/fonts/X11/Type1/lmvtto10.afm
p1608
aV/usr/share/fonts/type1/texlive-fonts-recommended/pcrbo8a.afm
p1609
aV/usr/share/fonts/X11/Type1/lmss10.afm
p1610
aV/usr/share/fonts/X11/Type1/lmvtt10.afm
p1611
aV/usr/share/fonts/type1/gsfonts/b018035l.afm
p1612
aV/usr/share/fonts/type1/texlive-fonts-recommended/putbi8a.afm
p1613
aV/usr/share/fonts/X11/Type1/qtmbi.afm
p1614
aV/usr/share/fonts/X11/Type1/qcsbi.afm
p1615
aV/usr/share/fonts/type1/texlive-fonts-recommended/pcrb8a.afm
p1616
aV/usr/share/fonts/type1/gsfonts/n022004l.afm
p1617
aV/usr/share/fonts/type1/mathml/Symbol.afm
p1618
aV/usr/share/fonts/X11/Type1/qhvcbi.afm
p1619
aV/usr/share/fonts/type1/texlive-fonts-recommended/utmbi8a.afm
p1620
aV/usr/share/fonts/type1/texlive-fonts-recommended/uhvr8ac.afm
p1621
aV/usr/share/fonts/type1/texlive-fonts-recommended/uzcmi8a.afm
p1622
aV/usr/share/fonts/type1/texlive-fonts-recommended/uagd8a.afm
p1623
aV/usr/share/fonts/X11/Type1/lmri10.afm
p1624
aV/usr/share/fonts/type1/gsfonts/n019004l.afm
p1625
aV/usr/share/fonts/X11/Type1/lmr10.afm
p1626
aV/usr/share/fonts/type1/gsfonts/a010015l.afm
p1627
aV/usr/share/fonts/type1/texlive-fonts-recommended/uncri8a.afm
p1628
aV/usr/share/fonts/X11/Type1/lmtl10.afm
p1629
aV/usr/share/fonts/type1/texlive-fonts-recommended/usyr.afm
p1630
aV/usr/share/fonts/type1/texlive-fonts-recommended/uhvr8a.afm
p1631
aV/usr/share/fonts/X11/Type1/qplri.afm
p1632
aV/usr/share/fonts/type1/texlive-fonts-recommended/ubkl8a.afm
p1633
aV/usr/share/fonts/X11/Type1/qhvcr.afm
p1634
aV/usr/share/fonts/X11/Type1/lmtlco10.afm
p1635
aV/usr/share/fonts/X11/Type1/qtmb.afm
p1636
aV/usr/share/fonts/X11/Type1/lmtto10.afm
p1637
aV/usr/share/fonts/X11/Type1/qplb.afm
p1638
aV/usr/share/fonts/X11/Type1/c0648bt_.afm
p1639
aV/usr/share/fonts/type1/gsfonts/n022003l.afm
p1640
aV/usr/share/fonts/type1/gsfonts/a010033l.afm
p1641
aV/usr/share/fonts/X11/Type1/lmvtko10.afm
p1642
aV/usr/share/fonts/type1/texlive-fonts-recommended/bchri8a.afm
p1643
aV/usr/share/fonts/type1/texlive-fonts-recommended/bchb8a.afm
p1644
aV/usr/share/fonts/type1/gsfonts/c059033l.afm
p1645
aV/usr/share/fonts/type1/texlive-fonts-recommended/uplb8a.afm
p1646
aV/usr/share/fonts/X11/Type1/qcrri.afm
p1647
aV/usr/share/fonts/type1/texlive-fonts-recommended/uhvro8ac.afm
p1648
aV/usr/share/fonts/type1/texlive-fonts-recommended/ubkd8a.afm
p1649
aV/usr/share/fonts/type1/texlive-fonts-recommended/uagko8a.afm
p1650
aV/usr/share/fonts/type1/texlive-fonts-recommended/uplr8a.afm
p1651
aV/usr/share/fonts/type1/texlive-fonts-recommended/uhvb8ac.afm
p1652
aV/usr/share/fonts/X11/Type1/c0582bt_.afm
p1653
aV/usr/share/fonts/type1/texlive-fonts-recommended/utmb8a.afm
p1654
aV/usr/share/fonts/type1/texlive-fonts-recommended/uhvb8a.afm
p1655
aV/usr/share/fonts/X11/Type1/lmssq8.afm
p1656
aV/usr/share/fonts/X11/Type1/lmro10.afm
p1657
aV/usr/share/fonts/type1/texlive-fonts-recommended/pcrr8a.afm
p1658
aV/usr/share/fonts/X11/Type1/qagr.afm
p1659
aV/usr/share/fonts/type1/gsfonts/n019043l.afm
p1660
aV/usr/share/fonts/type1/texlive-fonts-recommended/utmr8a.afm
p1661
aV/usr/share/fonts/type1/texlive-fonts-recommended/bchr8a.afm
p1662
aV/usr/share/fonts/type1/gsfonts/n019023l.afm
p1663
aV/usr/share/fonts/X11/Type1/lmtko10.afm
p1664
aV/usr/share/fonts/type1/texlive-fonts-recommended/uncbi8a.afm
p1665
aV/usr/share/fonts/X11/Type1/lmsso10.afm
p1666
aV/usr/share/fonts/X11/Type1/lmbo10.afm
p1667
aV/usr/share/fonts/type1/gsfonts/p052023l.afm
p1668
aV/usr/share/fonts/X11/Type1/qplbi.afm
p1669
aV/usr/share/fonts/type1/texlive-fonts-recommended/uagdo8a.afm
p1670
aV/usr/share/fonts/X11/Type1/lmssdc10.afm
p1671
aV/usr/share/fonts/type1/gsfonts/c059016l.afm
p1672
aV/usr/share/fonts/type1/gsfonts/n022023l.afm
p1673
aV/usr/share/fonts/X11/Type1/qhvcri.afm
p1674
aV/usr/share/fonts/type1/gsfonts/a010035l.afm
p1675
aV/usr/share/fonts/X11/Type1/qbkri.afm
p1676
aV/usr/share/fonts/type1/texlive-fonts-recommended/uzdr.afm
p1677
aV/usr/share/fonts/X11/Type1/c0632bt_.afm
p1678
aV/usr/share/fonts/X11/Type1/lmu10.afm
p1679
asS'afmlist'
p1680
(lp1681
g1
(g8
g3
NtRp1682
(dp1683
g11
Vnormal
p1684
sg13
S'LMMono10'
p1685
sg15
I400
sg16
g1684
sg17
g1684
sg18
g1513
sg20
Vscalable
p1686
sbag1
(g8
g3
NtRp1687
(dp1688
g11
g1684
sg13
S'URW Palladio L'
p1689
sg15
I700
sg16
g1684
sg17
g1684
sg18
g1516
sg20
g1686
sbag1
(g8
g3
NtRp1690
(dp1691
g11
Vitalic
p1692
sg13
S'LMSansQuot8'
p1693
sg15
I400
sg16
g1684
sg17
g1684
sg18
g1517
sg20
g1686
sbag1
(g8
g3
NtRp1694
(dp1695
g11
g1692
sg13
S'Nimbus Sans L'
p1696
sg15
I700
sg16
Vcondensed
p1697
sg17
g1684
sg18
g1518
sg20
g1686
sbag1
(g8
g3
NtRp1698
(dp1699
g11
g1684
sg13
S'URW Bookman L'
p1700
sg15
I700
sg16
g1684
sg17
g1684
sg18
g1519
sg20
g1686
sbag1
(g8
g3
NtRp1701
(dp1702
g11
g1692
sg13
S'LMRomanSlant10'
p1703
sg15
I700
sg16
g1684
sg17
g1684
sg18
g1520
sg20
g1686
sbag1
(g8
g3
NtRp1704
(dp1705
g11
g1692
sg13
S'Century Schoolbook L'
p1706
sg15
I700
sg16
g1684
sg17
g1684
sg18
g1521
sg20
g1686
sbag1
(g8
g3
NtRp1707
(dp1708
g11
g1692
sg13
S'URW Palladio L'
p1709
sg15
I700
sg16
g1684
sg17
g1684
sg18
g1522
sg20
g1686
sbag1
(g8
g3
NtRp1710
(dp1711
g11
g1692
sg13
S'Nimbus Mono L'
p1712
sg15
I700
sg16
g1684
sg17
g1684
sg18
g1523
sg20
g1686
sbag1
(g8
g3
NtRp1713
(dp1714
g11
g1692
sg13
S'TeXGyreChorus'
p1715
sg15
I500
sg16
g1684
sg17
g1684
sg18
g1524
sg20
g1686
sbag1
(g8
g3
NtRp1716
(dp1717
g11
g1684
sg13
S'LMMonoLtCond10'
p1718
sg15
I200
sg16
g1697
sg17
g1684
sg18
g1525
sg20
g1686
sbag1
(g8
g3
NtRp1719
(dp1720
g11
g1684
sg13
S'Symbol'
p1721
sg15
I400
sg16
g1684
sg17
g1684
sg18
g1526
sg20
g1686
sbag1
(g8
g3
NtRp1722
(dp1723
g11
g1684
sg13
S'LMMonoLt10'
p1724
sg15
I700
sg16
g1684
sg17
g1684
sg18
g1527
sg20
g1686
sbag1
(g8
g3
NtRp1725
(dp1726
g11
g1684
sg13
S'TeXGyreBonum'
p1727
sg15
I400
sg16
g1684
sg17
g1684
sg18
g1528
sg20
g1686
sbag1
(g8
g3
NtRp1728
(dp1729
g11
g1684
sg13
S'LMRomanDunh10'
p1730
sg15
I400
sg16
g1684
sg17
g1684
sg18
g1529
sg20
g1686
sbag1
(g8
g3
NtRp1731
(dp1732
g11
g1684
sg13
S'Nimbus Sans L'
p1733
sg15
I400
sg16
g1684
sg17
g1684
sg18
g1530
sg20
g1686
sbag1
(g8
g3
NtRp1734
(dp1735
g11
g1692
sg13
S'LMRomanDunh10'
p1736
sg15
I400
sg16
g1684
sg17
g1684
sg18
g1531
sg20
g1686
sbag1
(g8
g3
NtRp1737
(dp1738
g11
g1692
sg13
S'Nimbus Mono L'
p1739
sg15
I400
sg16
g1684
sg17
g1684
sg18
g1532
sg20
g1686
sbag1
(g8
g3
NtRp1740
(dp1741
g11
g1692
sg13
S'URW Bookman L'
p1742
sg15
I400
sg16
g1684
sg17
g1684
sg18
g1533
sg20
g1686
sbag1
(g8
g3
NtRp1743
(dp1744
g11
g1692
sg13
S'Nimbus Sans L'
p1745
sg15
I700
sg16
g1697
sg17
g1684
sg18
g1534
sg20
g1686
sbag1
(g8
g3
NtRp1746
(dp1747
g11
g1684
sg13
S'URW Gothic L'
p1748
sg15
I400
sg16
g1684
sg17
g1684
sg18
g1535
sg20
g1686
sbag1
(g8
g3
NtRp1749
(dp1750
g11
g1692
sg13
S'Nimbus Sans L'
p1751
sg15
I400
sg16
g1684
sg17
g1684
sg18
g1536
sg20
g1686
sbag1
(g8
g3
NtRp1752
(dp1753
g11
g1692
sg13
S'LMMono10'
p1754
sg15
I400
sg16
g1684
sg17
g1684
sg18
g1537
sg20
g1686
sbag1
(g8
g3
NtRp1755
(dp1756
g11
g1684
sg13
S'TeXGyreCursor'
p1757
sg15
I400
sg16
g1684
sg17
g1684
sg18
g1538
sg20
g1686
sbag1
(g8
g3
NtRp1758
(dp1759
g11
g1692
sg13
S'URW Bookman L'
p1760
sg15
I700
sg16
g1684
sg17
g1684
sg18
g1539
sg20
g1686
sbag1
(g8
g3
NtRp1761
(dp1762
g11
g1692
sg13
S'Courier'
p1763
sg15
I500
sg16
g1684
sg17
g1684
sg18
g1540
sg20
g1686
sbag1
(g8
g3
NtRp1764
(dp1765
g11
g1684
sg13
S'Century Schoolbook L'
p1766
sg15
I700
sg16
g1684
sg17
g1684
sg18
g1541
sg20
g1686
sbag1
(g8
g3
NtRp1767
(dp1768
g11
g1692
sg13
S'Utopia'
p1769
sg15
I400
sg16
g1684
sg17
g1684
sg18
g1542
sg20
g1686
sbag1
(g8
g3
NtRp1770
(dp1771
g11
g1684
sg13
S'TeXGyreHerosCondensed'
p1772
sg15
I700
sg16
g1697
sg17
g1684
sg18
g1543
sg20
g1686
sbag1
(g8
g3
NtRp1773
(dp1774
g11
g1684
sg13
S'LMSans10'
p1775
sg15
I700
sg16
g1684
sg17
g1684
sg18
g1544
sg20
g1686
sbag1
(g8
g3
NtRp1776
(dp1777
g11
g1692
sg13
S'LMMonoPropLt10'
p1778
sg15
I200
sg16
g1684
sg17
g1684
sg18
g1545
sg20
g1686
sbag1
(g8
g3
NtRp1779
(dp1780
g11
g1692
sg13
S'LMSans10'
p1781
sg15
I700
sg16
g1684
sg17
g1684
sg18
g1546
sg20
g1686
sbag1
(g8
g3
NtRp1782
(dp1783
g11
g1692
sg13
S'LMMonoCaps10'
p1784
sg15
I400
sg16
g1684
sg17
g1684
sg18
g1547
sg20
g1686
sbag1
(g8
g3
NtRp1785
(dp1786
g11
g1684
sg13
S'Century Schoolbook L'
p1787
sg15
I500
sg16
g1684
sg17
g1684
sg18
g1548
sg20
g1686
sbag1
(g8
g3
NtRp1788
(dp1789
g11
g1684
sg13
S'Courier 10 Pitch'
p1790
sg15
I400
sg16
g1684
sg17
g1684
sg18
g1549
sg20
g1686
sbag1
(g8
g3
NtRp1791
(dp1792
g11
g1692
sg13
S'Nimbus Roman No9 L'
p1793
sg15
I700
sg16
g1684
sg17
g1684
sg18
g1550
sg20
g1686
sbag1
(g8
g3
NtRp1794
(dp1795
g11
g1692
sg13
S'Nimbus Sans L'
p1796
sg15
I700
sg16
g1684
sg17
g1684
sg18
g1551
sg20
g1686
sbag1
(g8
g3
NtRp1797
(dp1798
g11
g1692
sg13
S'TeXGyreHeros'
p1799
sg15
I700
sg16
g1684
sg17
g1684
sg18
g1552
sg20
g1686
sbag1
(g8
g3
NtRp1800
(dp1801
g11
g1684
sg13
S'TeXGyreSchola'
p1802
sg15
I700
sg16
g1684
sg17
g1684
sg18
g1553
sg20
g1686
sbag1
(g8
g3
NtRp1803
(dp1804
g11
g1684
sg13
S'LMRoman10'
p1805
sg15
I700
sg16
g1684
sg17
g1684
sg18
g1554
sg20
g1686
sbag1
(g8
g3
NtRp1806
(dp1807
g11
g1684
sg13
S'Dingbats'
p1808
sg15
I400
sg16
g1684
sg17
g1684
sg18
g1555
sg20
g1686
sbag1
(g8
g3
NtRp1809
(dp1810
g11
g1692
sg13
S'LMSansDemiCond10'
p1811
sg15
I600
sg16
g1697
sg17
g1684
sg18
g1556
sg20
g1686
sbag1
(g8
g3
NtRp1812
(dp1813
g11
g1684
sg13
S'LMSansQuot8'
p1814
sg15
I700
sg16
g1684
sg17
g1684
sg18
g1557
sg20
g1686
sbag1
(g8
g3
NtRp1815
(dp1816
g11
g1684
sg13
S'TeXGyreHeros'
p1817
sg15
I700
sg16
g1684
sg17
g1684
sg18
g1558
sg20
g1686
sbag1
(g8
g3
NtRp1818
(dp1819
g11
g1692
sg13
S'Bitstream Charter'
p1820
sg15
I400
sg16
g1684
sg17
g1684
sg18
g1559
sg20
g1686
sbag1
(g8
g3
NtRp1821
(dp1822
g11
g1684
sg13
S'Nimbus Mono L'
p1823
sg15
I400
sg16
g1684
sg17
g1684
sg18
g1560
sg20
g1686
sbag1
(g8
g3
NtRp1824
(dp1825
g11
g1684
sg13
S'Nimbus Sans L'
p1826
sg15
I700
sg16
g1697
sg17
g1684
sg18
g1561
sg20
g1686
sbag1
(g8
g3
NtRp1827
(dp1828
g11
g1692
sg13
S'URW Chancery L'
p1829
sg15
I500
sg16
g1684
sg17
g1684
sg18
g1562
sg20
g1686
sbag1
(g8
g3
NtRp1830
(dp1831
g11
g1684
sg13
S'TeXGyreHeros'
p1832
sg15
I400
sg16
g1684
sg17
g1684
sg18
g1563
sg20
g1686
sbag1
(g8
g3
NtRp1833
(dp1834
g11
g1692
sg13
S'LMRoman10'
p1835
sg15
I700
sg16
g1684
sg17
g1684
sg18
g1564
sg20
g1686
sbag1
(g8
g3
NtRp1836
(dp1837
g11
g1692
sg13
S'LMRomanCaps10'
p1838
sg15
I400
sg16
g1684
sg17
g1684
sg18
g1565
sg20
g1686
sbag1
(g8
g3
NtRp1839
(dp1840
g11
g1684
sg13
S'Utopia'
p1841
sg15
I400
sg16
g1684
sg17
g1684
sg18
g1566
sg20
g1686
sbag1
(g8
g3
NtRp1842
(dp1843
g11
g1684
sg13
S'URW Bookman L'
p1844
sg15
I400
sg16
g1684
sg17
g1684
sg18
g1567
sg20
g1686
sbag1
(g8
g3
NtRp1845
(dp1846
g11
g1692
sg13
S'TeXGyreAdventor'
p1847
sg15
I400
sg16
g1684
sg17
g1684
sg18
g1568
sg20
g1686
sbag1
(g8
g3
NtRp1848
(dp1849
g11
g1684
sg13
S'TeXGyrePagella'
p1850
sg15
I400
sg16
g1684
sg17
g1684
sg18
g1569
sg20
g1686
sbag1
(g8
g3
NtRp1851
(dp1852
g11
g1692
sg13
S'Nimbus Sans L'
p1853
sg15
I700
sg16
g1684
sg17
g1684
sg18
g1570
sg20
g1686
sbag1
(g8
g3
NtRp1854
(dp1855
g11
g1684
sg13
S'TeXGyreSchola'
p1856
sg15
I400
sg16
g1684
sg17
g1684
sg18
g1571
sg20
g1686
sbag1
(g8
g3
NtRp1857
(dp1858
g11
g1692
sg13
S'TeXGyreBonum'
p1859
sg15
I700
sg16
g1684
sg17
g1684
sg18
g1572
sg20
g1686
sbag1
(g8
g3
NtRp1860
(dp1861
g11
g1692
sg13
S'Nimbus Roman No9 L'
p1862
sg15
I400
sg16
g1684
sg17
g1684
sg18
g1573
sg20
g1686
sbag1
(g8
g3
NtRp1863
(dp1864
g11
g1684
sg13
S'URW Gothic L'
p1865
sg15
I400
sg16
g1684
sg17
g1684
sg18
g1574
sg20
g1686
sbag1
(g8
g3
NtRp1866
(dp1867
g11
g1684
sg13
S'Courier 10 Pitch'
p1868
sg15
I700
sg16
g1684
sg17
g1684
sg18
g1575
sg20
g1686
sbag1
(g8
g3
NtRp1869
(dp1870
g11
g1684
sg13
S'Nimbus Mono L'
p1871
sg15
I700
sg16
g1684
sg17
g1684
sg18
g1576
sg20
g1686
sbag1
(g8
g3
NtRp1872
(dp1873
g11
g1692
sg13
S'Nimbus Mono L'
p1874
sg15
I700
sg16
g1684
sg17
g1684
sg18
g1577
sg20
g1686
sbag1
(g8
g3
NtRp1875
(dp1876
g11
g1692
sg13
S'URW Palladio L'
p1877
sg15
I400
sg16
g1684
sg17
g1684
sg18
g1578
sg20
g1686
sbag1
(g8
g3
NtRp1878
(dp1879
g11
g1692
sg13
S'Bitstream Charter'
p1880
sg15
I700
sg16
g1684
sg17
g1684
sg18
g1579
sg20
g1686
sbag1
(g8
g3
NtRp1881
(dp1882
g11
g1684
sg13
S'LMRomanCaps10'
p1883
sg15
I400
sg16
g1684
sg17
g1684
sg18
g1580
sg20
g1686
sbag1
(g8
g3
NtRp1884
(dp1885
g11
g1692
sg13
S'TeXGyreAdventor'
p1886
sg15
I700
sg16
g1684
sg17
g1684
sg18
g1581
sg20
g1686
sbag1
(g8
g3
NtRp1887
(dp1888
g11
g1684
sg13
S'TeXGyreBonum'
p1889
sg15
I700
sg16
g1684
sg17
g1684
sg18
g1582
sg20
g1686
sbag1
(g8
g3
NtRp1890
(dp1891
g11
g1684
sg13
S'TeXGyreCursor'
p1892
sg15
I700
sg16
g1684
sg17
g1684
sg18
g1583
sg20
g1686
sbag1
(g8
g3
NtRp1893
(dp1894
g11
g1692
sg13
S'LMSansQuot8'
p1895
sg15
I700
sg16
g1684
sg17
g1684
sg18
g1584
sg20
g1686
sbag1
(g8
g3
NtRp1896
(dp1897
g11
g1684
sg13
S'URW Palladio L'
p1898
sg15
I500
sg16
g1684
sg17
g1684
sg18
g1585
sg20
g1686
sbag1
(g8
g3
NtRp1899
(dp1900
g11
g1692
sg13
S'URW Bookman L'
p1901
sg15
I400
sg16
g1684
sg17
g1684
sg18
g1586
sg20
g1686
sbag1
(g8
g3
NtRp1902
(dp1903
g11
g1684
sg13
S'LMMonoPropLt10'
p1904
sg15
I700
sg16
g1684
sg17
g1684
sg18
g1587
sg20
g1686
sbag1
(g8
g3
NtRp1905
(dp1906
g11
g1692
sg13
S'Nimbus Roman No9 L'
p1907
sg15
I400
sg16
g1684
sg17
g1684
sg18
g1588
sg20
g1686
sbag1
(g8
g3
NtRp1908
(dp1909
g11
g1692
sg13
S'TeXGyreHeros'
p1910
sg15
I400
sg16
g1684
sg17
g1684
sg18
g1589
sg20
g1686
sbag1
(g8
g3
NtRp1911
(dp1912
g11
g1692
sg13
S'LMMonoLt10'
p1913
sg15
I200
sg16
g1684
sg17
g1684
sg18
g1590
sg20
g1686
sbag1
(g8
g3
NtRp1914
(dp1915
g11
g1684
sg13
S'LMMonoPropLt10'
p1916
sg15
I200
sg16
g1684
sg17
g1684
sg18
g1591
sg20
g1686
sbag1
(g8
g3
NtRp1917
(dp1918
g11
g1684
sg13
S'Nimbus Roman No9 L'
p1919
sg15
I400
sg16
g1684
sg17
g1684
sg18
g1592
sg20
g1686
sbag1
(g8
g3
NtRp1920
(dp1921
g11
g1692
sg13
S'Courier 10 Pitch'
p1922
sg15
I700
sg16
g1684
sg17
g1684
sg18
g1593
sg20
g1686
sbag1
(g8
g3
NtRp1923
(dp1924
g11
g1684
sg13
S'Standard Symbols L'
p1925
sg15
I400
sg16
g1684
sg17
g1684
sg18
g1594
sg20
g1686
sbag1
(g8
g3
NtRp1926
(dp1927
g11
g1684
sg13
S'Nimbus Roman No9 L'
p1928
sg15
I700
sg16
g1684
sg17
g1684
sg18
g1595
sg20
g1686
sbag1
(g8
g3
NtRp1929
(dp1930
g11
g1692
sg13
S'URW Palladio L'
p1931
sg15
I700
sg16
g1684
sg17
g1684
sg18
g1596
sg20
g1686
sbag1
(g8
g3
NtRp1932
(dp1933
g11
g1692
sg13
S'TeXGyreTermes'
p1934
sg15
I400
sg16
g1684
sg17
g1684
sg18
g1597
sg20
g1686
sbag1
(g8
g3
NtRp1935
(dp1936
g11
g1684
sg13
S'Century Schoolbook L'
p1937
sg15
I500
sg16
g1684
sg17
g1684
sg18
g1598
sg20
g1686
sbag1
(g8
g3
NtRp1938
(dp1939
g11
g1692
sg13
S'TeXGyreCursor'
p1940
sg15
I700
sg16
g1684
sg17
g1684
sg18
g1599
sg20
g1686
sbag1
(g8
g3
NtRp1941
(dp1942
g11
g1684
sg13
S'LMRomanDemi10'
p1943
sg15
I600
sg16
g1684
sg17
g1684
sg18
g1600
sg20
g1686
sbag1
(g8
g3
NtRp1944
(dp1945
g11
g1692
sg13
S'TeXGyreSchola'
p1946
sg15
I400
sg16
g1684
sg17
g1684
sg18
g1601
sg20
g1686
sbag1
(g8
g3
NtRp1947
(dp1948
g11
g1692
sg13
S'Nimbus Sans L'
p1949
sg15
I400
sg16
g1697
sg17
g1684
sg18
g1602
sg20
g1686
sbag1
(g8
g3
NtRp1950
(dp1951
g11
g1684
sg13
S'TeXGyreTermes'
p1952
sg15
I400
sg16
g1684
sg17
g1684
sg18
g1603
sg20
g1686
sbag1
(g8
g3
NtRp1953
(dp1954
g11
g1684
sg13
S'LMMonoCaps10'
p1955
sg15
I400
sg16
g1684
sg17
g1684
sg18
g1604
sg20
g1686
sbag1
(g8
g3
NtRp1956
(dp1957
g11
g1684
sg13
S'Utopia'
p1958
sg15
I700
sg16
g1684
sg17
g1684
sg18
g1605
sg20
g1686
sbag1
(g8
g3
NtRp1959
(dp1960
g11
g1684
sg13
S'TeXGyreAdventor'
p1961
sg15
I700
sg16
g1684
sg17
g1684
sg18
g1606
sg20
g1686
sbag1
(g8
g3
NtRp1962
(dp1963
g11
g1692
sg13
S'Bitstream Charter'
p1964
sg15
I700
sg16
g1684
sg17
g1684
sg18
g1607
sg20
g1686
sbag1
(g8
g3
NtRp1965
(dp1966
g11
g1692
sg13
S'LMMonoProp10'
p1967
sg15
I400
sg16
g1684
sg17
g1684
sg18
g1608
sg20
g1686
sbag1
(g8
g3
NtRp1968
(dp1969
g11
g1692
sg13
S'Courier'
p1970
sg15
I700
sg16
g1684
sg17
g1684
sg18
g1609
sg20
g1686
sbag1
(g8
g3
NtRp1971
(dp1972
g11
g1684
sg13
S'LMSans10'
p1973
sg15
I400
sg16
g1684
sg17
g1684
sg18
g1610
sg20
g1686
sbag1
(g8
g3
NtRp1974
(dp1975
g11
g1684
sg13
S'LMMonoProp10'
p1976
sg15
I400
sg16
g1684
sg17
g1684
sg18
g1611
sg20
g1686
sbag1
(g8
g3
NtRp1977
(dp1978
g11
g1692
sg13
S'URW Bookman L'
p1979
sg15
I700
sg16
g1684
sg17
g1684
sg18
g1612
sg20
g1686
sbag1
(g8
g3
NtRp1980
(dp1981
g11
g1692
sg13
S'Utopia'
p1982
sg15
I700
sg16
g1684
sg17
g1684
sg18
g1613
sg20
g1686
sbag1
(g8
g3
NtRp1983
(dp1984
g11
g1692
sg13
S'TeXGyreTermes'
p1985
sg15
I700
sg16
g1684
sg17
g1684
sg18
g1614
sg20
g1686
sbag1
(g8
g3
NtRp1986
(dp1987
g11
g1692
sg13
S'TeXGyreSchola'
p1988
sg15
I400
sg16
g1684
sg17
g1684
sg18
g1615
sg20
g1686
sbag1
(g8
g3
NtRp1989
(dp1990
g11
g1684
sg13
S'Courier'
p1991
sg15
I700
sg16
g1684
sg17
g1684
sg18
g1616
sg20
g1686
sbag1
(g8
g3
NtRp1992
(dp1993
g11
g1684
sg13
S'Nimbus Mono L'
p1994
sg15
I700
sg16
g1684
sg17
g1684
sg18
g1617
sg20
g1686
sbag1
(g8
g3
NtRp1995
(dp1996
g11
g1692
sg13
S'TeXGyreHerosCondensed'
p1997
sg15
I700
sg16
g1697
sg17
g1684
sg18
g1619
sg20
g1686
sbag1
(g8
g3
NtRp1998
(dp1999
g11
g1692
sg13
S'Nimbus Roman No9 L'
p2000
sg15
I700
sg16
g1684
sg17
g1684
sg18
g1620
sg20
g1686
sbag1
(g8
g3
NtRp2001
(dp2002
g11
g1684
sg13
S'Nimbus Sans L'
p2003
sg15
I400
sg16
g1697
sg17
g1684
sg18
g1621
sg20
g1686
sbag1
(g8
g3
NtRp2004
(dp2005
g11
g1692
sg13
S'URW Chancery L'
p2006
sg15
I500
sg16
g1684
sg17
g1684
sg18
g1622
sg20
g1686
sbag1
(g8
g3
NtRp2007
(dp2008
g11
g1684
sg13
S'URW Gothic L'
p2009
sg15
I600
sg16
g1684
sg17
g1684
sg18
g1623
sg20
g1686
sbag1
(g8
g3
NtRp2010
(dp2011
g11
g1692
sg13
S'LMRoman10'
p2012
sg15
I400
sg16
g1684
sg17
g1684
sg18
g1624
sg20
g1686
sbag1
(g8
g3
NtRp2013
(dp2014
g11
g1684
sg13
S'Nimbus Sans L'
p2015
sg15
I700
sg16
g1684
sg17
g1684
sg18
g1625
sg20
g1686
sbag1
(g8
g3
NtRp2016
(dp2017
g11
g1684
sg13
S'LMRoman10'
p2018
sg15
I400
sg16
g1684
sg17
g1684
sg18
g1626
sg20
g1686
sbag1
(g8
g3
NtRp2019
(dp2020
g11
g1684
sg13
S'URW Gothic L'
p2021
sg15
I600
sg16
g1684
sg17
g1684
sg18
g1627
sg20
g1686
sbag1
(g8
g3
NtRp2022
(dp2023
g11
g1692
sg13
S'Century Schoolbook L'
p2024
sg15
I400
sg16
g1684
sg17
g1684
sg18
g1628
sg20
g1686
sbag1
(g8
g3
NtRp2025
(dp2026
g11
g1684
sg13
S'LMMonoLt10'
p2027
sg15
I200
sg16
g1684
sg17
g1684
sg18
g1629
sg20
g1686
sbag1
(g8
g3
NtRp2028
(dp2029
g11
g1684
sg13
S'Standard Symbols L'
p2030
sg15
I400
sg16
g1684
sg17
g1684
sg18
g1630
sg20
g1686
sbag1
(g8
g3
NtRp2031
(dp2032
g11
g1684
sg13
S'Nimbus Sans L'
p2033
sg15
I400
sg16
g1684
sg17
g1684
sg18
g1631
sg20
g1686
sbag1
(g8
g3
NtRp2034
(dp2035
g11
g1692
sg13
S'TeXGyrePagella'
p2036
sg15
I400
sg16
g1684
sg17
g1684
sg18
g1632
sg20
g1686
sbag1
(g8
g3
NtRp2037
(dp2038
g11
g1684
sg13
S'URW Bookman L'
p2039
sg15
I400
sg16
g1684
sg17
g1684
sg18
g1633
sg20
g1686
sbag1
(g8
g3
NtRp2040
(dp2041
g11
g1684
sg13
S'TeXGyreHerosCondensed'
p2042
sg15
I400
sg16
g1697
sg17
g1684
sg18
g1634
sg20
g1686
sbag1
(g8
g3
NtRp2043
(dp2044
g11
g1692
sg13
S'LMMonoLtCond10'
p2045
sg15
I200
sg16
g1697
sg17
g1684
sg18
g1635
sg20
g1686
sbag1
(g8
g3
NtRp2046
(dp2047
g11
g1684
sg13
S'TeXGyreTermes'
p2048
sg15
I700
sg16
g1684
sg17
g1684
sg18
g1636
sg20
g1686
sbag1
(g8
g3
NtRp2049
(dp2050
g11
g1692
sg13
S'LMMonoSlant10'
p2051
sg15
I400
sg16
g1684
sg17
g1684
sg18
g1637
sg20
g1686
sbag1
(g8
g3
NtRp2052
(dp2053
g11
g1684
sg13
S'TeXGyrePagella'
p2054
sg15
I700
sg16
g1684
sg17
g1684
sg18
g1638
sg20
g1686
sbag1
(g8
g3
NtRp2055
(dp2056
g11
g1684
sg13
S'Bitstream Charter'
p2057
sg15
I400
sg16
g1684
sg17
g1684
sg18
g1639
sg20
g1686
sbag1
(g8
g3
NtRp2058
(dp2059
g11
g1684
sg13
S'Nimbus Mono L'
p2060
sg15
I400
sg16
g1684
sg17
g1684
sg18
g1640
sg20
g1686
sbag1
(g8
g3
NtRp2061
(dp2062
g11
g1692
sg13
S'URW Gothic L'
p2063
sg15
I400
sg16
g1684
sg17
g1684
sg18
g1641
sg20
g1686
sbag1
(g8
g3
NtRp2064
(dp2065
g11
g1692
sg13
S'LMMonoPropLt10'
p2066
sg15
I700
sg16
g1684
sg17
g1684
sg18
g1642
sg20
g1686
sbag1
(g8
g3
NtRp2067
(dp2068
g11
g1692
sg13
S'Bitstream Charter'
p2069
sg15
I400
sg16
g1684
sg17
g1684
sg18
g1643
sg20
g1686
sbag1
(g8
g3
NtRp2070
(dp2071
g11
g1684
sg13
S'Bitstream Charter'
p2072
sg15
I700
sg16
g1684
sg17
g1684
sg18
g1644
sg20
g1686
sbag1
(g8
g3
NtRp2073
(dp2074
g11
g1692
sg13
S'Century Schoolbook L'
p2075
sg15
I400
sg16
g1684
sg17
g1684
sg18
g1645
sg20
g1686
sbag1
(g8
g3
NtRp2076
(dp2077
g11
g1684
sg13
S'URW Palladio L'
p2078
sg15
I700
sg16
g1684
sg17
g1684
sg18
g1646
sg20
g1686
sbag1
(g8
g3
NtRp2079
(dp2080
g11
g1692
sg13
S'TeXGyreCursor'
p2081
sg15
I400
sg16
g1684
sg17
g1684
sg18
g1647
sg20
g1686
sbag1
(g8
g3
NtRp2082
(dp2083
g11
g1692
sg13
S'Nimbus Sans L'
p2084
sg15
I400
sg16
g1697
sg17
g1684
sg18
g1648
sg20
g1686
sbag1
(g8
g3
NtRp2085
(dp2086
g11
g1684
sg13
S'URW Bookman L'
p2087
sg15
I700
sg16
g1684
sg17
g1684
sg18
g1649
sg20
g1686
sbag1
(g8
g3
NtRp2088
(dp2089
g11
g1692
sg13
S'URW Gothic L'
p2090
sg15
I400
sg16
g1684
sg17
g1684
sg18
g1650
sg20
g1686
sbag1
(g8
g3
NtRp2091
(dp2092
g11
g1684
sg13
S'URW Palladio L'
p2093
sg15
I500
sg16
g1684
sg17
g1684
sg18
g1651
sg20
g1686
sbag1
(g8
g3
NtRp2094
(dp2095
g11
g1684
sg13
S'Nimbus Sans L'
p2096
sg15
I700
sg16
g1697
sg17
g1684
sg18
g1652
sg20
g1686
sbag1
(g8
g3
NtRp2097
(dp2098
g11
g1692
sg13
S'Courier 10 Pitch'
p2099
sg15
I400
sg16
g1684
sg17
g1684
sg18
g1653
sg20
g1686
sbag1
(g8
g3
NtRp2100
(dp2101
g11
g1684
sg13
S'Nimbus Roman No9 L'
p2102
sg15
I700
sg16
g1684
sg17
g1684
sg18
g1654
sg20
g1686
sbag1
(g8
g3
NtRp2103
(dp2104
g11
g1684
sg13
S'Nimbus Sans L'
p2105
sg15
I700
sg16
g1684
sg17
g1684
sg18
g1655
sg20
g1686
sbag1
(g8
g3
NtRp2106
(dp2107
g11
g1684
sg13
S'LMSansQuot8'
p2108
sg15
I400
sg16
g1684
sg17
g1684
sg18
g1656
sg20
g1686
sbag1
(g8
g3
NtRp2109
(dp2110
g11
g1692
sg13
S'LMRomanSlant10'
p2111
sg15
I400
sg16
g1684
sg17
g1684
sg18
g1657
sg20
g1686
sbag1
(g8
g3
NtRp2112
(dp2113
g11
g1684
sg13
S'Courier'
p2114
sg15
I500
sg16
g1684
sg17
g1684
sg18
g1658
sg20
g1686
sbag1
(g8
g3
NtRp2115
(dp2116
g11
g1684
sg13
S'TeXGyreAdventor'
p2117
sg15
I400
sg16
g1684
sg17
g1684
sg18
g1659
sg20
g1686
sbag1
(g8
g3
NtRp2118
(dp2119
g11
g1684
sg13
S'Nimbus Sans L'
p2120
sg15
I400
sg16
g1697
sg17
g1684
sg18
g1660
sg20
g1686
sbag1
(g8
g3
NtRp2121
(dp2122
g11
g1684
sg13
S'Nimbus Roman No9 L'
p2123
sg15
I400
sg16
g1684
sg17
g1684
sg18
g1661
sg20
g1686
sbag1
(g8
g3
NtRp2124
(dp2125
g11
g1684
sg13
S'Bitstream Charter'
p2126
sg15
I400
sg16
g1684
sg17
g1684
sg18
g1662
sg20
g1686
sbag1
(g8
g3
NtRp2127
(dp2128
g11
g1692
sg13
S'Nimbus Sans L'
p2129
sg15
I400
sg16
g1684
sg17
g1684
sg18
g1663
sg20
g1686
sbag1
(g8
g3
NtRp2130
(dp2131
g11
g1692
sg13
S'LMMonoLt10'
p2132
sg15
I700
sg16
g1684
sg17
g1684
sg18
g1664
sg20
g1686
sbag1
(g8
g3
NtRp2133
(dp2134
g11
g1692
sg13
S'Century Schoolbook L'
p2135
sg15
I700
sg16
g1684
sg17
g1684
sg18
g1665
sg20
g1686
sbag1
(g8
g3
NtRp2136
(dp2137
g11
g1692
sg13
S'LMSans10'
p2138
sg15
I400
sg16
g1684
sg17
g1684
sg18
g1666
sg20
g1686
sbag1
(g8
g3
NtRp2139
(dp2140
g11
g1692
sg13
S'LMRomanDemi10'
p2141
sg15
I600
sg16
g1684
sg17
g1684
sg18
g1667
sg20
g1686
sbag1
(g8
g3
NtRp2142
(dp2143
g11
g1692
sg13
S'URW Palladio L'
p2144
sg15
I400
sg16
g1684
sg17
g1684
sg18
g1668
sg20
g1686
sbag1
(g8
g3
NtRp2145
(dp2146
g11
g1692
sg13
S'TeXGyrePagella'
p2147
sg15
I700
sg16
g1684
sg17
g1684
sg18
g1669
sg20
g1686
sbag1
(g8
g3
NtRp2148
(dp2149
g11
g1692
sg13
S'URW Gothic L'
p2150
sg15
I600
sg16
g1684
sg17
g1684
sg18
g1670
sg20
g1686
sbag1
(g8
g3
NtRp2151
(dp2152
g11
g1684
sg13
S'LMSansDemiCond10'
p2153
sg15
I600
sg16
g1697
sg17
g1684
sg18
g1671
sg20
g1686
sbag1
(g8
g3
NtRp2154
(dp2155
g11
g1684
sg13
S'Century Schoolbook L'
p2156
sg15
I700
sg16
g1684
sg17
g1684
sg18
g1672
sg20
g1686
sbag1
(g8
g3
NtRp2157
(dp2158
g11
g1692
sg13
S'Nimbus Mono L'
p2159
sg15
I400
sg16
g1684
sg17
g1684
sg18
g1673
sg20
g1686
sbag1
(g8
g3
NtRp2160
(dp2161
g11
g1692
sg13
S'TeXGyreHerosCondensed'
p2162
sg15
I400
sg16
g1697
sg17
g1684
sg18
g1674
sg20
g1686
sbag1
(g8
g3
NtRp2163
(dp2164
g11
g1692
sg13
S'URW Gothic L'
p2165
sg15
I600
sg16
g1684
sg17
g1684
sg18
g1675
sg20
g1686
sbag1
(g8
g3
NtRp2166
(dp2167
g11
g1692
sg13
S'TeXGyreBonum'
p2168
sg15
I400
sg16
g1684
sg17
g1684
sg18
g1676
sg20
g1686
sbag1
(g8
g3
NtRp2169
(dp2170
g11
g1684
sg13
S'Dingbats'
p2171
sg15
I400
sg16
g1684
sg17
g1684
sg18
g1677
sg20
g1686
sbag1
(g8
g3
NtRp2172
(dp2173
g11
g1684
sg13
S'Bitstream Charter'
p2174
sg15
I700
sg16
g1684
sg17
g1684
sg18
g1678
sg20
g1686
sbag1
(g8
g3
NtRp2175
(dp2176
g11
g1684
sg13
S'LMRomanUnsl10'
p2177
sg15
I400
sg16
g1684
sg17
g1684
sg18
g1679
sg20
g1686
sbasb.